In archive target/x86_64-kernel/debug/libkernel.a:

kernel-9b89dc178204b098.0eiexdpmd6rnp3c3rt9liulhv.rcgu.o:     file format elf64-x86-64


Disassembly of section .text._ZN6kernel10vga_driver7VGAChar3new17h0ed805601f99c88eE:

0000000000000000 <_ZN6kernel10vga_driver7VGAChar3new17h0ed805601f99c88eE>:
   0:	50                   	push   %rax
   1:	40 88 f2             	mov    %sil,%dl
   4:	89 3c 24             	mov    %edi,(%rsp)
   7:	88 54 24 07          	mov    %dl,0x7(%rsp)
   b:	40 88 f8             	mov    %dil,%al
   e:	59                   	pop    %rcx
   f:	c3                   	ret

Disassembly of section .text._ZN6kernel10vga_driver15vga_entry_color17hf94ccc1c21a63511E:

0000000000000000 <_ZN6kernel10vga_driver15vga_entry_color17hf94ccc1c21a63511E>:
   0:	50                   	push   %rax
   1:	89 3c 24             	mov    %edi,(%rsp)
   4:	89 74 24 04          	mov    %esi,0x4(%rsp)
   8:	8b 04 24             	mov    (%rsp),%eax
   b:	8b 4c 24 04          	mov    0x4(%rsp),%ecx
   f:	c0 e1 04             	shl    $0x4,%cl
  12:	08 c8                	or     %cl,%al
  14:	59                   	pop    %rcx
  15:	c3                   	ret

Disassembly of section .text._ZN6kernel10vga_driver11VGATerminal8put_char17h932fc5798ff4c7daE:

0000000000000000 <_ZN6kernel10vga_driver11VGATerminal8put_char17h932fc5798ff4c7daE>:
   0:	48 83 ec 38          	sub    $0x38,%rsp
   4:	89 74 24 14          	mov    %esi,0x14(%rsp)
   8:	48 89 7c 24 18       	mov    %rdi,0x18(%rsp)
   d:	48 89 7c 24 28       	mov    %rdi,0x28(%rsp)
  12:	89 74 24 34          	mov    %esi,0x34(%rsp)
  16:	48 8b 47 08          	mov    0x8(%rdi),%rax
  1a:	48 89 44 24 20       	mov    %rax,0x20(%rsp)
  1f:	48 83 f8 19          	cmp    $0x19,%rax
  23:	73 16                	jae    3b <_ZN6kernel10vga_driver11VGATerminal8put_char17h932fc5798ff4c7daE+0x3b>
  25:	48 8b 44 24 18       	mov    0x18(%rsp),%rax
  2a:	48 8b 40 10          	mov    0x10(%rax),%rax
  2e:	48 89 44 24 08       	mov    %rax,0x8(%rsp)
  33:	48 83 f8 50          	cmp    $0x50,%rax
  37:	72 18                	jb     51 <_ZN6kernel10vga_driver11VGATerminal8put_char17h932fc5798ff4c7daE+0x51>
  39:	eb 5a                	jmp    95 <_ZN6kernel10vga_driver11VGATerminal8put_char17h932fc5798ff4c7daE+0x95>
  3b:	48 8b 7c 24 20       	mov    0x20(%rsp),%rdi
  40:	48 8d 15 00 00 00 00 	lea    0x0(%rip),%rdx        # 47 <_ZN6kernel10vga_driver11VGATerminal8put_char17h932fc5798ff4c7daE+0x47>
  47:	be 19 00 00 00       	mov    $0x19,%esi
  4c:	e8 00 00 00 00       	call   51 <_ZN6kernel10vga_driver11VGATerminal8put_char17h932fc5798ff4c7daE+0x51>
  51:	48 8b 44 24 18       	mov    0x18(%rsp),%rax
  56:	8b 7c 24 14          	mov    0x14(%rsp),%edi
  5a:	48 8b 54 24 08       	mov    0x8(%rsp),%rdx
  5f:	48 8b 4c 24 20       	mov    0x20(%rsp),%rcx
  64:	48 69 c9 a0 00 00 00 	imul   $0xa0,%rcx,%rcx
  6b:	48 03 08             	add    (%rax),%rcx
  6e:	48 d1 e2             	shl    $1,%rdx
  71:	48 01 d1             	add    %rdx,%rcx
  74:	48 89 0c 24          	mov    %rcx,(%rsp)
  78:	0f b6 70 18          	movzbl 0x18(%rax),%esi
  7c:	e8 00 00 00 00       	call   81 <_ZN6kernel10vga_driver11VGATerminal8put_char17h932fc5798ff4c7daE+0x81>
  81:	48 8b 3c 24          	mov    (%rsp),%rdi
  85:	0f b6 f0             	movzbl %al,%esi
  88:	0f b6 d2             	movzbl %dl,%edx
  8b:	e8 00 00 00 00       	call   90 <_ZN6kernel10vga_driver11VGATerminal8put_char17h932fc5798ff4c7daE+0x90>
  90:	48 83 c4 38          	add    $0x38,%rsp
  94:	c3                   	ret
  95:	48 8b 7c 24 08       	mov    0x8(%rsp),%rdi
  9a:	48 8d 15 00 00 00 00 	lea    0x0(%rip),%rdx        # a1 <_ZN6kernel10vga_driver11VGATerminal8put_char17h932fc5798ff4c7daE+0xa1>
  a1:	be 50 00 00 00       	mov    $0x50,%esi
  a6:	e8 00 00 00 00       	call   ab <_ZN6kernel10vga_driver11VGATerminal8put_char17h932fc5798ff4c7daE+0xab>

Disassembly of section .text._ZN6kernel10vga_driver11VGATerminal16increment_column17hae5e1a5f47909da7E:

0000000000000000 <_ZN6kernel10vga_driver11VGATerminal16increment_column17hae5e1a5f47909da7E>:
   0:	48 83 ec 18          	sub    $0x18,%rsp
   4:	48 89 7c 24 08       	mov    %rdi,0x8(%rsp)
   9:	48 89 7c 24 10       	mov    %rdi,0x10(%rsp)
   e:	48 83 7f 10 4f       	cmpq   $0x4f,0x10(%rdi)
  13:	74 18                	je     2d <_ZN6kernel10vga_driver11VGATerminal16increment_column17hae5e1a5f47909da7E+0x2d>
  15:	48 8b 44 24 08       	mov    0x8(%rsp),%rax
  1a:	48 8b 40 10          	mov    0x10(%rax),%rax
  1e:	48 83 c0 01          	add    $0x1,%rax
  22:	48 89 04 24          	mov    %rax,(%rsp)
  26:	0f 92 c0             	setb   %al
  29:	72 20                	jb     4b <_ZN6kernel10vga_driver11VGATerminal16increment_column17hae5e1a5f47909da7E+0x4b>
  2b:	eb 0f                	jmp    3c <_ZN6kernel10vga_driver11VGATerminal16increment_column17hae5e1a5f47909da7E+0x3c>
  2d:	48 8b 44 24 08       	mov    0x8(%rsp),%rax
  32:	48 c7 40 10 00 00 00 	movq   $0x0,0x10(%rax)
  39:	00 
  3a:	eb 1b                	jmp    57 <_ZN6kernel10vga_driver11VGATerminal16increment_column17hae5e1a5f47909da7E+0x57>
  3c:	48 8b 44 24 08       	mov    0x8(%rsp),%rax
  41:	48 8b 0c 24          	mov    (%rsp),%rcx
  45:	48 89 48 10          	mov    %rcx,0x10(%rax)
  49:	eb 0c                	jmp    57 <_ZN6kernel10vga_driver11VGATerminal16increment_column17hae5e1a5f47909da7E+0x57>
  4b:	48 8d 3d 00 00 00 00 	lea    0x0(%rip),%rdi        # 52 <_ZN6kernel10vga_driver11VGATerminal16increment_column17hae5e1a5f47909da7E+0x52>
  52:	e8 00 00 00 00       	call   57 <_ZN6kernel10vga_driver11VGATerminal16increment_column17hae5e1a5f47909da7E+0x57>
  57:	48 83 c4 18          	add    $0x18,%rsp
  5b:	c3                   	ret

Disassembly of section .text._ZN6kernel10vga_driver11VGATerminal8new_line17hc70b1c435d5bb8d5E:

0000000000000000 <_ZN6kernel10vga_driver11VGATerminal8new_line17hc70b1c435d5bb8d5E>:
   0:	48 81 ec 88 00 00 00 	sub    $0x88,%rsp
   7:	48 89 7c 24 20       	mov    %rdi,0x20(%rsp)
   c:	48 89 7c 24 68       	mov    %rdi,0x68(%rsp)
  11:	bf 01 00 00 00       	mov    $0x1,%edi
  16:	be 19 00 00 00       	mov    $0x19,%esi
  1b:	e8 00 00 00 00       	call   20 <_ZN6kernel10vga_driver11VGATerminal8new_line17hc70b1c435d5bb8d5E+0x20>
  20:	48 89 44 24 28       	mov    %rax,0x28(%rsp)
  25:	48 89 54 24 30       	mov    %rdx,0x30(%rsp)
  2a:	48 8d 7c 24 28       	lea    0x28(%rsp),%rdi
  2f:	e8 00 00 00 00       	call   34 <_ZN6kernel10vga_driver11VGATerminal8new_line17hc70b1c435d5bb8d5E+0x34>
  34:	48 89 44 24 38       	mov    %rax,0x38(%rsp)
  39:	48 89 54 24 40       	mov    %rdx,0x40(%rsp)
  3e:	48 83 7c 24 38 00    	cmpq   $0x0,0x38(%rsp)
  44:	75 1f                	jne    65 <_ZN6kernel10vga_driver11VGATerminal8new_line17hc70b1c435d5bb8d5E+0x65>
  46:	48 8b 7c 24 20       	mov    0x20(%rsp),%rdi
  4b:	48 c7 47 10 00 00 00 	movq   $0x0,0x10(%rdi)
  52:	00 
  53:	be 18 00 00 00       	mov    $0x18,%esi
  58:	e8 00 00 00 00       	call   5d <_ZN6kernel10vga_driver11VGATerminal8new_line17hc70b1c435d5bb8d5E+0x5d>
  5d:	48 81 c4 88 00 00 00 	add    $0x88,%rsp
  64:	c3                   	ret
  65:	48 8b 44 24 40       	mov    0x40(%rsp),%rax
  6a:	48 89 44 24 18       	mov    %rax,0x18(%rsp)
  6f:	48 89 44 24 70       	mov    %rax,0x70(%rsp)
  74:	31 c0                	xor    %eax,%eax
  76:	89 c7                	mov    %eax,%edi
  78:	be 50 00 00 00       	mov    $0x50,%esi
  7d:	e8 00 00 00 00       	call   82 <_ZN6kernel10vga_driver11VGATerminal8new_line17hc70b1c435d5bb8d5E+0x82>
  82:	48 89 44 24 48       	mov    %rax,0x48(%rsp)
  87:	48 89 54 24 50       	mov    %rdx,0x50(%rsp)
  8c:	48 8d 7c 24 48       	lea    0x48(%rsp),%rdi
  91:	e8 00 00 00 00       	call   96 <_ZN6kernel10vga_driver11VGATerminal8new_line17hc70b1c435d5bb8d5E+0x96>
  96:	48 89 44 24 58       	mov    %rax,0x58(%rsp)
  9b:	48 89 54 24 60       	mov    %rdx,0x60(%rsp)
  a0:	48 83 7c 24 58 00    	cmpq   $0x0,0x58(%rsp)
  a6:	74 82                	je     2a <_ZN6kernel10vga_driver11VGATerminal8new_line17hc70b1c435d5bb8d5E+0x2a>
  a8:	48 8b 44 24 18       	mov    0x18(%rsp),%rax
  ad:	48 8b 4c 24 60       	mov    0x60(%rsp),%rcx
  b2:	48 89 4c 24 10       	mov    %rcx,0x10(%rsp)
  b7:	48 89 4c 24 78       	mov    %rcx,0x78(%rsp)
  bc:	48 83 f8 19          	cmp    $0x19,%rax
  c0:	73 0d                	jae    cf <_ZN6kernel10vga_driver11VGATerminal8new_line17hc70b1c435d5bb8d5E+0xcf>
  c2:	48 8b 44 24 10       	mov    0x10(%rsp),%rax
  c7:	48 83 f8 50          	cmp    $0x50,%rax
  cb:	72 18                	jb     e5 <_ZN6kernel10vga_driver11VGATerminal8new_line17hc70b1c435d5bb8d5E+0xe5>
  cd:	eb 6b                	jmp    13a <_ZN6kernel10vga_driver11VGATerminal8new_line17hc70b1c435d5bb8d5E+0x13a>
  cf:	48 8b 7c 24 18       	mov    0x18(%rsp),%rdi
  d4:	48 8d 15 00 00 00 00 	lea    0x0(%rip),%rdx        # db <_ZN6kernel10vga_driver11VGATerminal8new_line17hc70b1c435d5bb8d5E+0xdb>
  db:	be 19 00 00 00       	mov    $0x19,%esi
  e0:	e8 00 00 00 00       	call   e5 <_ZN6kernel10vga_driver11VGATerminal8new_line17hc70b1c435d5bb8d5E+0xe5>
  e5:	48 8b 54 24 18       	mov    0x18(%rsp),%rdx
  ea:	48 8b 44 24 10       	mov    0x10(%rsp),%rax
  ef:	48 8b 4c 24 20       	mov    0x20(%rsp),%rcx
  f4:	48 69 fa a0 00 00 00 	imul   $0xa0,%rdx,%rdi
  fb:	48 03 39             	add    (%rcx),%rdi
  fe:	48 d1 e0             	shl    $1,%rax
 101:	48 01 c7             	add    %rax,%rdi
 104:	e8 00 00 00 00       	call   109 <_ZN6kernel10vga_driver11VGATerminal8new_line17hc70b1c435d5bb8d5E+0x109>
 109:	88 c1                	mov    %al,%cl
 10b:	48 8b 44 24 18       	mov    0x18(%rsp),%rax
 110:	88 4c 24 06          	mov    %cl,0x6(%rsp)
 114:	88 54 24 07          	mov    %dl,0x7(%rsp)
 118:	88 8c 24 86 00 00 00 	mov    %cl,0x86(%rsp)
 11f:	88 94 24 87 00 00 00 	mov    %dl,0x87(%rsp)
 126:	48 89 c1             	mov    %rax,%rcx
 129:	48 83 e9 01          	sub    $0x1,%rcx
 12d:	48 89 4c 24 08       	mov    %rcx,0x8(%rsp)
 132:	48 83 f8 01          	cmp    $0x1,%rax
 136:	72 25                	jb     15d <_ZN6kernel10vga_driver11VGATerminal8new_line17hc70b1c435d5bb8d5E+0x15d>
 138:	eb 16                	jmp    150 <_ZN6kernel10vga_driver11VGATerminal8new_line17hc70b1c435d5bb8d5E+0x150>
 13a:	48 8b 7c 24 10       	mov    0x10(%rsp),%rdi
 13f:	48 8d 15 00 00 00 00 	lea    0x0(%rip),%rdx        # 146 <_ZN6kernel10vga_driver11VGATerminal8new_line17hc70b1c435d5bb8d5E+0x146>
 146:	be 50 00 00 00       	mov    $0x50,%esi
 14b:	e8 00 00 00 00       	call   150 <_ZN6kernel10vga_driver11VGATerminal8new_line17hc70b1c435d5bb8d5E+0x150>
 150:	48 8b 44 24 08       	mov    0x8(%rsp),%rax
 155:	48 83 f8 19          	cmp    $0x19,%rax
 159:	72 0e                	jb     169 <_ZN6kernel10vga_driver11VGATerminal8new_line17hc70b1c435d5bb8d5E+0x169>
 15b:	eb 19                	jmp    176 <_ZN6kernel10vga_driver11VGATerminal8new_line17hc70b1c435d5bb8d5E+0x176>
 15d:	48 8d 3d 00 00 00 00 	lea    0x0(%rip),%rdi        # 164 <_ZN6kernel10vga_driver11VGATerminal8new_line17hc70b1c435d5bb8d5E+0x164>
 164:	e8 00 00 00 00       	call   169 <_ZN6kernel10vga_driver11VGATerminal8new_line17hc70b1c435d5bb8d5E+0x169>
 169:	48 8b 44 24 10       	mov    0x10(%rsp),%rax
 16e:	48 83 f8 50          	cmp    $0x50,%rax
 172:	72 18                	jb     18c <_ZN6kernel10vga_driver11VGATerminal8new_line17hc70b1c435d5bb8d5E+0x18c>
 174:	eb 4d                	jmp    1c3 <_ZN6kernel10vga_driver11VGATerminal8new_line17hc70b1c435d5bb8d5E+0x1c3>
 176:	48 8b 7c 24 08       	mov    0x8(%rsp),%rdi
 17b:	48 8d 15 00 00 00 00 	lea    0x0(%rip),%rdx        # 182 <_ZN6kernel10vga_driver11VGATerminal8new_line17hc70b1c435d5bb8d5E+0x182>
 182:	be 19 00 00 00       	mov    $0x19,%esi
 187:	e8 00 00 00 00       	call   18c <_ZN6kernel10vga_driver11VGATerminal8new_line17hc70b1c435d5bb8d5E+0x18c>
 18c:	8a 44 24 07          	mov    0x7(%rsp),%al
 190:	8a 4c 24 06          	mov    0x6(%rsp),%cl
 194:	48 8b 54 24 10       	mov    0x10(%rsp),%rdx
 199:	48 8b 74 24 20       	mov    0x20(%rsp),%rsi
 19e:	48 8b 7c 24 08       	mov    0x8(%rsp),%rdi
 1a3:	48 69 ff a0 00 00 00 	imul   $0xa0,%rdi,%rdi
 1aa:	48 03 3e             	add    (%rsi),%rdi
 1ad:	48 d1 e2             	shl    $1,%rdx
 1b0:	48 01 d7             	add    %rdx,%rdi
 1b3:	0f b6 f1             	movzbl %cl,%esi
 1b6:	0f b6 d0             	movzbl %al,%edx
 1b9:	e8 00 00 00 00       	call   1be <_ZN6kernel10vga_driver11VGATerminal8new_line17hc70b1c435d5bb8d5E+0x1be>
 1be:	e9 c9 fe ff ff       	jmp    8c <_ZN6kernel10vga_driver11VGATerminal8new_line17hc70b1c435d5bb8d5E+0x8c>
 1c3:	48 8b 7c 24 10       	mov    0x10(%rsp),%rdi
 1c8:	48 8d 15 00 00 00 00 	lea    0x0(%rip),%rdx        # 1cf <_ZN6kernel10vga_driver11VGATerminal8new_line17hc70b1c435d5bb8d5E+0x1cf>
 1cf:	be 50 00 00 00       	mov    $0x50,%esi
 1d4:	e8 00 00 00 00       	call   1d9 <_ZN6kernel10vga_driver11VGATerminal8new_line17hc70b1c435d5bb8d5E+0x1d9>

Disassembly of section .text._ZN6kernel10vga_driver11VGATerminal9clear_row17hbff1de27fe261357E:

0000000000000000 <_ZN6kernel10vga_driver11VGATerminal9clear_row17hbff1de27fe261357E>:
   0:	48 83 ec 68          	sub    $0x68,%rsp
   4:	48 89 74 24 10       	mov    %rsi,0x10(%rsp)
   9:	48 89 f8             	mov    %rdi,%rax
   c:	48 89 44 24 18       	mov    %rax,0x18(%rsp)
  11:	48 89 44 24 48       	mov    %rax,0x48(%rsp)
  16:	48 89 74 24 50       	mov    %rsi,0x50(%rsp)
  1b:	bf 20 00 00 00       	mov    $0x20,%edi
  20:	0f b6 70 18          	movzbl 0x18(%rax),%esi
  24:	e8 00 00 00 00       	call   29 <_ZN6kernel10vga_driver11VGATerminal9clear_row17hbff1de27fe261357E+0x29>
  29:	88 44 24 26          	mov    %al,0x26(%rsp)
  2d:	88 54 24 27          	mov    %dl,0x27(%rsp)
  31:	88 44 24 5e          	mov    %al,0x5e(%rsp)
  35:	88 54 24 5f          	mov    %dl,0x5f(%rsp)
  39:	31 c0                	xor    %eax,%eax
  3b:	89 c7                	mov    %eax,%edi
  3d:	be 50 00 00 00       	mov    $0x50,%esi
  42:	e8 00 00 00 00       	call   47 <_ZN6kernel10vga_driver11VGATerminal9clear_row17hbff1de27fe261357E+0x47>
  47:	48 89 44 24 28       	mov    %rax,0x28(%rsp)
  4c:	48 89 54 24 30       	mov    %rdx,0x30(%rsp)
  51:	48 8d 7c 24 28       	lea    0x28(%rsp),%rdi
  56:	e8 00 00 00 00       	call   5b <_ZN6kernel10vga_driver11VGATerminal9clear_row17hbff1de27fe261357E+0x5b>
  5b:	48 89 44 24 38       	mov    %rax,0x38(%rsp)
  60:	48 89 54 24 40       	mov    %rdx,0x40(%rsp)
  65:	48 83 7c 24 38 00    	cmpq   $0x0,0x38(%rsp)
  6b:	75 05                	jne    72 <_ZN6kernel10vga_driver11VGATerminal9clear_row17hbff1de27fe261357E+0x72>
  6d:	48 83 c4 68          	add    $0x68,%rsp
  71:	c3                   	ret
  72:	48 8b 44 24 10       	mov    0x10(%rsp),%rax
  77:	48 8b 4c 24 40       	mov    0x40(%rsp),%rcx
  7c:	48 89 4c 24 08       	mov    %rcx,0x8(%rsp)
  81:	48 89 4c 24 60       	mov    %rcx,0x60(%rsp)
  86:	48 83 f8 19          	cmp    $0x19,%rax
  8a:	73 0d                	jae    99 <_ZN6kernel10vga_driver11VGATerminal9clear_row17hbff1de27fe261357E+0x99>
  8c:	48 8b 44 24 08       	mov    0x8(%rsp),%rax
  91:	48 83 f8 50          	cmp    $0x50,%rax
  95:	72 18                	jb     af <_ZN6kernel10vga_driver11VGATerminal9clear_row17hbff1de27fe261357E+0xaf>
  97:	eb 4d                	jmp    e6 <_ZN6kernel10vga_driver11VGATerminal9clear_row17hbff1de27fe261357E+0xe6>
  99:	48 8b 7c 24 10       	mov    0x10(%rsp),%rdi
  9e:	48 8d 15 00 00 00 00 	lea    0x0(%rip),%rdx        # a5 <_ZN6kernel10vga_driver11VGATerminal9clear_row17hbff1de27fe261357E+0xa5>
  a5:	be 19 00 00 00       	mov    $0x19,%esi
  aa:	e8 00 00 00 00       	call   af <_ZN6kernel10vga_driver11VGATerminal9clear_row17hbff1de27fe261357E+0xaf>
  af:	8a 44 24 27          	mov    0x27(%rsp),%al
  b3:	8a 4c 24 26          	mov    0x26(%rsp),%cl
  b7:	48 8b 54 24 08       	mov    0x8(%rsp),%rdx
  bc:	48 8b 74 24 18       	mov    0x18(%rsp),%rsi
  c1:	48 8b 7c 24 10       	mov    0x10(%rsp),%rdi
  c6:	48 69 ff a0 00 00 00 	imul   $0xa0,%rdi,%rdi
  cd:	48 03 3e             	add    (%rsi),%rdi
  d0:	48 d1 e2             	shl    $1,%rdx
  d3:	48 01 d7             	add    %rdx,%rdi
  d6:	0f b6 f1             	movzbl %cl,%esi
  d9:	0f b6 d0             	movzbl %al,%edx
  dc:	e8 00 00 00 00       	call   e1 <_ZN6kernel10vga_driver11VGATerminal9clear_row17hbff1de27fe261357E+0xe1>
  e1:	e9 6b ff ff ff       	jmp    51 <_ZN6kernel10vga_driver11VGATerminal9clear_row17hbff1de27fe261357E+0x51>
  e6:	48 8b 7c 24 08       	mov    0x8(%rsp),%rdi
  eb:	48 8d 15 00 00 00 00 	lea    0x0(%rip),%rdx        # f2 <_ZN6kernel10vga_driver11VGATerminal9clear_row17hbff1de27fe261357E+0xf2>
  f2:	be 50 00 00 00       	mov    $0x50,%esi
  f7:	e8 00 00 00 00       	call   fc <_ZN6kernel10vga_driver11VGATerminal9clear_row17hbff1de27fe261357E+0xfc>

Disassembly of section .text._ZN68_$LT$kernel..vga_driver..VGATerminal$u20$as$u20$core..fmt..Write$GT$9write_str17h4a1793922b88997fE:

0000000000000000 <_ZN68_$LT$kernel..vga_driver..VGATerminal$u20$as$u20$core..fmt..Write$GT$9write_str17h4a1793922b88997fE>:
   0:	48 83 ec 58          	sub    $0x58,%rsp
   4:	48 89 54 24 08       	mov    %rdx,0x8(%rsp)
   9:	48 89 f0             	mov    %rsi,%rax
   c:	48 8b 74 24 08       	mov    0x8(%rsp),%rsi
  11:	48 89 44 24 10       	mov    %rax,0x10(%rsp)
  16:	48 89 f8             	mov    %rdi,%rax
  19:	48 8b 7c 24 10       	mov    0x10(%rsp),%rdi
  1e:	48 89 44 24 18       	mov    %rax,0x18(%rsp)
  23:	48 89 44 24 40       	mov    %rax,0x40(%rsp)
  28:	48 89 7c 24 48       	mov    %rdi,0x48(%rsp)
  2d:	48 89 74 24 50       	mov    %rsi,0x50(%rsp)
  32:	e8 00 00 00 00       	call   37 <_ZN68_$LT$kernel..vga_driver..VGATerminal$u20$as$u20$core..fmt..Write$GT$9write_str17h4a1793922b88997fE+0x37>
  37:	48 89 c7             	mov    %rax,%rdi
  3a:	48 89 d6             	mov    %rdx,%rsi
  3d:	e8 00 00 00 00       	call   42 <_ZN68_$LT$kernel..vga_driver..VGATerminal$u20$as$u20$core..fmt..Write$GT$9write_str17h4a1793922b88997fE+0x42>
  42:	48 89 44 24 28       	mov    %rax,0x28(%rsp)
  47:	48 89 54 24 30       	mov    %rdx,0x30(%rsp)
  4c:	48 8d 7c 24 28       	lea    0x28(%rsp),%rdi
  51:	e8 00 00 00 00       	call   56 <_ZN68_$LT$kernel..vga_driver..VGATerminal$u20$as$u20$core..fmt..Write$GT$9write_str17h4a1793922b88997fE+0x56>
  56:	89 44 24 38          	mov    %eax,0x38(%rsp)
  5a:	b8 01 00 00 00       	mov    $0x1,%eax
  5f:	31 c9                	xor    %ecx,%ecx
  61:	81 7c 24 38 00 00 11 	cmpl   $0x110000,0x38(%rsp)
  68:	00 
  69:	48 0f 44 c1          	cmove  %rcx,%rax
  6d:	48 83 f8 00          	cmp    $0x0,%rax
  71:	75 07                	jne    7a <_ZN68_$LT$kernel..vga_driver..VGATerminal$u20$as$u20$core..fmt..Write$GT$9write_str17h4a1793922b88997fE+0x7a>
  73:	c6 44 24 27 00       	movb   $0x0,0x27(%rsp)
  78:	eb 18                	jmp    92 <_ZN68_$LT$kernel..vga_driver..VGATerminal$u20$as$u20$core..fmt..Write$GT$9write_str17h4a1793922b88997fE+0x92>
  7a:	8b 44 24 38          	mov    0x38(%rsp),%eax
  7e:	89 44 24 3c          	mov    %eax,0x3c(%rsp)
  82:	48 8d 7c 24 3c       	lea    0x3c(%rsp),%rdi
  87:	e8 00 00 00 00       	call   8c <_ZN68_$LT$kernel..vga_driver..VGATerminal$u20$as$u20$core..fmt..Write$GT$9write_str17h4a1793922b88997fE+0x8c>
  8c:	a8 01                	test   $0x1,%al
  8e:	75 14                	jne    a4 <_ZN68_$LT$kernel..vga_driver..VGATerminal$u20$as$u20$core..fmt..Write$GT$9write_str17h4a1793922b88997fE+0xa4>
  90:	eb 0b                	jmp    9d <_ZN68_$LT$kernel..vga_driver..VGATerminal$u20$as$u20$core..fmt..Write$GT$9write_str17h4a1793922b88997fE+0x9d>
  92:	8a 44 24 27          	mov    0x27(%rsp),%al
  96:	24 01                	and    $0x1,%al
  98:	48 83 c4 58          	add    $0x58,%rsp
  9c:	c3                   	ret
  9d:	c6 44 24 27 01       	movb   $0x1,0x27(%rsp)
  a2:	eb ee                	jmp    92 <_ZN68_$LT$kernel..vga_driver..VGATerminal$u20$as$u20$core..fmt..Write$GT$9write_str17h4a1793922b88997fE+0x92>
  a4:	83 7c 24 3c 0a       	cmpl   $0xa,0x3c(%rsp)
  a9:	75 13                	jne    be <_ZN68_$LT$kernel..vga_driver..VGATerminal$u20$as$u20$core..fmt..Write$GT$9write_str17h4a1793922b88997fE+0xbe>
  ab:	48 8b 7c 24 18       	mov    0x18(%rsp),%rdi
  b0:	e8 00 00 00 00       	call   b5 <_ZN68_$LT$kernel..vga_driver..VGATerminal$u20$as$u20$core..fmt..Write$GT$9write_str17h4a1793922b88997fE+0xb5>
  b5:	83 7c 24 3c 0a       	cmpl   $0xa,0x3c(%rsp)
  ba:	74 12                	je     ce <_ZN68_$LT$kernel..vga_driver..VGATerminal$u20$as$u20$core..fmt..Write$GT$9write_str17h4a1793922b88997fE+0xce>
  bc:	eb 8e                	jmp    4c <_ZN68_$LT$kernel..vga_driver..VGATerminal$u20$as$u20$core..fmt..Write$GT$9write_str17h4a1793922b88997fE+0x4c>
  be:	48 8b 7c 24 18       	mov    0x18(%rsp),%rdi
  c3:	8b 74 24 3c          	mov    0x3c(%rsp),%esi
  c7:	e8 00 00 00 00       	call   cc <_ZN68_$LT$kernel..vga_driver..VGATerminal$u20$as$u20$core..fmt..Write$GT$9write_str17h4a1793922b88997fE+0xcc>
  cc:	eb dd                	jmp    ab <_ZN68_$LT$kernel..vga_driver..VGATerminal$u20$as$u20$core..fmt..Write$GT$9write_str17h4a1793922b88997fE+0xab>
  ce:	48 8b 7c 24 18       	mov    0x18(%rsp),%rdi
  d3:	e8 00 00 00 00       	call   d8 <_ZN68_$LT$kernel..vga_driver..VGATerminal$u20$as$u20$core..fmt..Write$GT$9write_str17h4a1793922b88997fE+0xd8>
  d8:	48 8b 44 24 18       	mov    0x18(%rsp),%rax
  dd:	48 c7 40 10 00 00 00 	movq   $0x0,0x10(%rax)
  e4:	00 
  e5:	e9 62 ff ff ff       	jmp    4c <_ZN68_$LT$kernel..vga_driver..VGATerminal$u20$as$u20$core..fmt..Write$GT$9write_str17h4a1793922b88997fE+0x4c>

Disassembly of section .text._ZN6kernel10vga_driver6_print17h15e7cbd0c0aff3a5E:

0000000000000000 <_ZN6kernel10vga_driver6_print17h15e7cbd0c0aff3a5E>:
   0:	48 81 ec 98 00 00 00 	sub    $0x98,%rsp
   7:	48 89 7c 24 10       	mov    %rdi,0x10(%rsp)
   c:	48 8d 3d 00 00 00 00 	lea    0x0(%rip),%rdi        # 13 <_ZN6kernel10vga_driver6_print17h15e7cbd0c0aff3a5E+0x13>
  13:	e8 00 00 00 00       	call   18 <_ZN6kernel10vga_driver6_print17h15e7cbd0c0aff3a5E+0x18>
  18:	48 89 44 24 18       	mov    %rax,0x18(%rsp)
  1d:	48 89 44 24 68       	mov    %rax,0x68(%rsp)
  22:	48 89 44 24 78       	mov    %rax,0x78(%rsp)
  27:	48 8b 7c 24 18       	mov    0x18(%rsp),%rdi
  2c:	c6 44 24 76 02       	movb   $0x2,0x76(%rsp)
  31:	c6 44 24 77 00       	movb   $0x0,0x77(%rsp)
  36:	8a 44 24 76          	mov    0x76(%rsp),%al
  3a:	31 f6                	xor    %esi,%esi
  3c:	ba 01 00 00 00       	mov    $0x1,%edx
  41:	0f b6 c8             	movzbl %al,%ecx
  44:	44 0f b6 44 24 77    	movzbl 0x77(%rsp),%r8d
  4a:	e8 00 00 00 00       	call   4f <_ZN6kernel10vga_driver6_print17h15e7cbd0c0aff3a5E+0x4f>
  4f:	24 01                	and    $0x1,%al
  51:	88 44 24 74          	mov    %al,0x74(%rsp)
  55:	88 54 24 75          	mov    %dl,0x75(%rsp)
  59:	48 8d 7c 24 74       	lea    0x74(%rsp),%rdi
  5e:	e8 00 00 00 00       	call   63 <_ZN6kernel10vga_driver6_print17h15e7cbd0c0aff3a5E+0x63>
  63:	a8 01                	test   $0x1,%al
  65:	75 02                	jne    69 <_ZN6kernel10vga_driver6_print17h15e7cbd0c0aff3a5E+0x69>
  67:	eb 2f                	jmp    98 <_ZN6kernel10vga_driver6_print17h15e7cbd0c0aff3a5E+0x98>
  69:	48 8b 7c 24 18       	mov    0x18(%rsp),%rdi
  6e:	48 89 bc 24 90 00 00 	mov    %rdi,0x90(%rsp)
  75:	00 
  76:	c6 84 24 8f 00 00 00 	movb   $0x0,0x8f(%rsp)
  7d:	00 
  7e:	0f b6 b4 24 8f 00 00 	movzbl 0x8f(%rsp),%esi
  85:	00 
  86:	e8 00 00 00 00       	call   8b <_ZN6kernel10vga_driver6_print17h15e7cbd0c0aff3a5E+0x8b>
  8b:	a8 01                	test   $0x1,%al
  8d:	75 02                	jne    91 <_ZN6kernel10vga_driver6_print17h15e7cbd0c0aff3a5E+0x91>
  8f:	eb 96                	jmp    27 <_ZN6kernel10vga_driver6_print17h15e7cbd0c0aff3a5E+0x27>
  91:	e8 00 00 00 00       	call   96 <_ZN6kernel10vga_driver6_print17h15e7cbd0c0aff3a5E+0x96>
  96:	eb d1                	jmp    69 <_ZN6kernel10vga_driver6_print17h15e7cbd0c0aff3a5E+0x69>
  98:	48 8b 4c 24 18       	mov    0x18(%rsp),%rcx
  9d:	48 89 c8             	mov    %rcx,%rax
  a0:	48 83 c0 08          	add    $0x8,%rax
  a4:	48 89 84 24 80 00 00 	mov    %rax,0x80(%rsp)
  ab:	00 
  ac:	48 89 4c 24 20       	mov    %rcx,0x20(%rsp)
  b1:	48 89 44 24 28       	mov    %rax,0x28(%rsp)
  b6:	48 8d 7c 24 20       	lea    0x20(%rsp),%rdi
  bb:	e8 00 00 00 00       	call   c0 <_ZN6kernel10vga_driver6_print17h15e7cbd0c0aff3a5E+0xc0>
  c0:	48 8b 74 24 10       	mov    0x10(%rsp),%rsi
  c5:	48 89 44 24 08       	mov    %rax,0x8(%rsp)
  ca:	48 8d 7c 24 30       	lea    0x30(%rsp),%rdi
  cf:	ba 30 00 00 00       	mov    $0x30,%edx
  d4:	e8 00 00 00 00       	call   d9 <_ZN6kernel10vga_driver6_print17h15e7cbd0c0aff3a5E+0xd9>
  d9:	48 8b 7c 24 08       	mov    0x8(%rsp),%rdi
  de:	48 8d 74 24 30       	lea    0x30(%rsp),%rsi
  e3:	e8 00 00 00 00       	call   e8 <_ZN6kernel10vga_driver6_print17h15e7cbd0c0aff3a5E+0xe8>
  e8:	24 01                	and    $0x1,%al
  ea:	88 44 24 66          	mov    %al,0x66(%rsp)
  ee:	8a 44 24 66          	mov    0x66(%rsp),%al
  f2:	24 01                	and    $0x1,%al
  f4:	0f b6 c0             	movzbl %al,%eax
  f7:	48 83 f8 00          	cmp    $0x0,%rax
  fb:	74 24                	je     121 <_ZN6kernel10vga_driver6_print17h15e7cbd0c0aff3a5E+0x121>
  fd:	48 8d 3d 00 00 00 00 	lea    0x0(%rip),%rdi        # 104 <_ZN6kernel10vga_driver6_print17h15e7cbd0c0aff3a5E+0x104>
 104:	48 8d 0d 00 00 00 00 	lea    0x0(%rip),%rcx        # 10b <_ZN6kernel10vga_driver6_print17h15e7cbd0c0aff3a5E+0x10b>
 10b:	4c 8d 05 00 00 00 00 	lea    0x0(%rip),%r8        # 112 <_ZN6kernel10vga_driver6_print17h15e7cbd0c0aff3a5E+0x112>
 112:	be 2b 00 00 00       	mov    $0x2b,%esi
 117:	48 8d 54 24 67       	lea    0x67(%rsp),%rdx
 11c:	e8 00 00 00 00       	call   121 <_ZN6kernel10vga_driver6_print17h15e7cbd0c0aff3a5E+0x121>
 121:	48 8d 7c 24 20       	lea    0x20(%rsp),%rdi
 126:	e8 00 00 00 00       	call   12b <_ZN6kernel10vga_driver6_print17h15e7cbd0c0aff3a5E+0x12b>
 12b:	48 81 c4 98 00 00 00 	add    $0x98,%rsp
 132:	c3                   	ret

Disassembly of section .text._ZN72_$LT$kernel..vga_driver..TERMINAL$u20$as$u20$core..ops..deref..Deref$GT$5deref17hc894067878fd7c60E:

0000000000000000 <_ZN72_$LT$kernel..vga_driver..TERMINAL$u20$as$u20$core..ops..deref..Deref$GT$5deref17hc894067878fd7c60E>:
   0:	48 83 ec 18          	sub    $0x18,%rsp
   4:	48 89 7c 24 08       	mov    %rdi,0x8(%rsp)
   9:	48 8d 05 00 00 00 00 	lea    0x0(%rip),%rax        # 10 <_ZN72_$LT$kernel..vga_driver..TERMINAL$u20$as$u20$core..ops..deref..Deref$GT$5deref17hc894067878fd7c60E+0x10>
  10:	48 89 44 24 10       	mov    %rax,0x10(%rsp)
  15:	48 8d 3d 00 00 00 00 	lea    0x0(%rip),%rdi        # 1c <_ZN72_$LT$kernel..vga_driver..TERMINAL$u20$as$u20$core..ops..deref..Deref$GT$5deref17hc894067878fd7c60E+0x1c>
  1c:	e8 00 00 00 00       	call   21 <_ZN72_$LT$kernel..vga_driver..TERMINAL$u20$as$u20$core..ops..deref..Deref$GT$5deref17hc894067878fd7c60E+0x21>
  21:	48 83 c4 18          	add    $0x18,%rsp
  25:	c3                   	ret

kernel-9b89dc178204b098.0jgwf01y83ucbvnlxj95wa0a4.rcgu.o:     file format elf64-x86-64


Disassembly of section .text._ZN6x86_6412instructions10interrupts4int317hcb981b3609447966E:

0000000000000000 <_ZN6x86_6412instructions10interrupts4int317hcb981b3609447966E>:
   0:	cc                   	int3
   1:	c3                   	ret

kernel-9b89dc178204b098.1xobv0e8gyb8zbx3mz7352v79.rcgu.o:     file format elf64-x86-64


Disassembly of section .text._ZN4core3fmt5Write10write_char17hec45f2d0788be591E:

0000000000000000 <_ZN4core3fmt5Write10write_char17hec45f2d0788be591E>:
   0:	48 83 ec 28          	sub    $0x28,%rsp
   4:	89 74 24 04          	mov    %esi,0x4(%rsp)
   8:	48 89 7c 24 08       	mov    %rdi,0x8(%rsp)
   d:	48 89 7c 24 18       	mov    %rdi,0x18(%rsp)
  12:	89 74 24 24          	mov    %esi,0x24(%rsp)
  16:	48 8d 7c 24 14       	lea    0x14(%rsp),%rdi
  1b:	31 f6                	xor    %esi,%esi
  1d:	ba 04 00 00 00       	mov    $0x4,%edx
  22:	e8 00 00 00 00       	call   27 <_ZN4core3fmt5Write10write_char17hec45f2d0788be591E+0x27>
  27:	8b 7c 24 04          	mov    0x4(%rsp),%edi
  2b:	48 8d 74 24 14       	lea    0x14(%rsp),%rsi
  30:	ba 04 00 00 00       	mov    $0x4,%edx
  35:	e8 00 00 00 00       	call   3a <_ZN4core3fmt5Write10write_char17hec45f2d0788be591E+0x3a>
  3a:	48 8b 7c 24 08       	mov    0x8(%rsp),%rdi
  3f:	48 89 c6             	mov    %rax,%rsi
  42:	e8 00 00 00 00       	call   47 <_ZN4core3fmt5Write10write_char17hec45f2d0788be591E+0x47>
  47:	24 01                	and    $0x1,%al
  49:	48 83 c4 28          	add    $0x28,%rsp
  4d:	c3                   	ret

Disassembly of section .text._ZN4core3fmt5Write9write_fmt17h889a5af223473c08E:

0000000000000000 <_ZN4core3fmt5Write9write_fmt17h889a5af223473c08E>:
   0:	48 83 ec 48          	sub    $0x48,%rsp
   4:	48 89 7c 24 08       	mov    %rdi,0x8(%rsp)
   9:	48 89 7c 24 10       	mov    %rdi,0x10(%rsp)
   e:	48 8d 7c 24 18       	lea    0x18(%rsp),%rdi
  13:	ba 30 00 00 00       	mov    $0x30,%edx
  18:	e8 00 00 00 00       	call   1d <_ZN4core3fmt5Write9write_fmt17h889a5af223473c08E+0x1d>
  1d:	48 8b 7c 24 08       	mov    0x8(%rsp),%rdi
  22:	48 8d 74 24 18       	lea    0x18(%rsp),%rsi
  27:	e8 00 00 00 00       	call   2c <_ZN4core3fmt5Write9write_fmt17h889a5af223473c08E+0x2c>
  2c:	24 01                	and    $0x1,%al
  2e:	48 83 c4 48          	add    $0x48,%rsp
  32:	c3                   	ret

Disassembly of section .text._ZN75_$LT$$RF$mut$u20$W$u20$as$u20$core..fmt..Write..write_fmt..SpecWriteFmt$GT$14spec_write_fmt17h972d0420143bb8daE:

0000000000000000 <_ZN75_$LT$$RF$mut$u20$W$u20$as$u20$core..fmt..Write..write_fmt..SpecWriteFmt$GT$14spec_write_fmt17h972d0420143bb8daE>:
   0:	48 83 ec 78          	sub    $0x78,%rsp
   4:	48 89 74 24 08       	mov    %rsi,0x8(%rsp)
   9:	48 89 f8             	mov    %rdi,%rax
   c:	48 8b 7c 24 08       	mov    0x8(%rsp),%rdi
  11:	48 89 44 24 10       	mov    %rax,0x10(%rsp)
  16:	48 89 44 24 30       	mov    %rax,0x30(%rsp)
  1b:	e8 00 00 00 00       	call   20 <_ZN75_$LT$$RF$mut$u20$W$u20$as$u20$core..fmt..Write..write_fmt..SpecWriteFmt$GT$14spec_write_fmt17h972d0420143bb8daE+0x20>
  20:	48 89 44 24 20       	mov    %rax,0x20(%rsp)
  25:	48 89 54 24 28       	mov    %rdx,0x28(%rsp)
  2a:	48 8b 54 24 20       	mov    0x20(%rsp),%rdx
  2f:	b8 01 00 00 00       	mov    $0x1,%eax
  34:	31 c9                	xor    %ecx,%ecx
  36:	48 83 fa 00          	cmp    $0x0,%rdx
  3a:	48 0f 44 c1          	cmove  %rcx,%rax
  3e:	48 83 f8 01          	cmp    $0x1,%rax
  42:	75 26                	jne    6a <_ZN75_$LT$$RF$mut$u20$W$u20$as$u20$core..fmt..Write..write_fmt..SpecWriteFmt$GT$14spec_write_fmt17h972d0420143bb8daE+0x6a>
  44:	48 8b 7c 24 10       	mov    0x10(%rsp),%rdi
  49:	48 8b 74 24 20       	mov    0x20(%rsp),%rsi
  4e:	48 8b 54 24 28       	mov    0x28(%rsp),%rdx
  53:	48 89 74 24 38       	mov    %rsi,0x38(%rsp)
  58:	48 89 54 24 40       	mov    %rdx,0x40(%rsp)
  5d:	e8 00 00 00 00       	call   62 <_ZN75_$LT$$RF$mut$u20$W$u20$as$u20$core..fmt..Write..write_fmt..SpecWriteFmt$GT$14spec_write_fmt17h972d0420143bb8daE+0x62>
  62:	24 01                	and    $0x1,%al
  64:	88 44 24 1f          	mov    %al,0x1f(%rsp)
  68:	eb 30                	jmp    9a <_ZN75_$LT$$RF$mut$u20$W$u20$as$u20$core..fmt..Write..write_fmt..SpecWriteFmt$GT$14spec_write_fmt17h972d0420143bb8daE+0x9a>
  6a:	48 8b 74 24 08       	mov    0x8(%rsp),%rsi
  6f:	48 8d 7c 24 48       	lea    0x48(%rsp),%rdi
  74:	ba 30 00 00 00       	mov    $0x30,%edx
  79:	e8 00 00 00 00       	call   7e <_ZN75_$LT$$RF$mut$u20$W$u20$as$u20$core..fmt..Write..write_fmt..SpecWriteFmt$GT$14spec_write_fmt17h972d0420143bb8daE+0x7e>
  7e:	48 8b 7c 24 10       	mov    0x10(%rsp),%rdi
  83:	48 8d 35 00 00 00 00 	lea    0x0(%rip),%rsi        # 8a <_ZN75_$LT$$RF$mut$u20$W$u20$as$u20$core..fmt..Write..write_fmt..SpecWriteFmt$GT$14spec_write_fmt17h972d0420143bb8daE+0x8a>
  8a:	48 8d 54 24 48       	lea    0x48(%rsp),%rdx
  8f:	e8 00 00 00 00       	call   94 <_ZN75_$LT$$RF$mut$u20$W$u20$as$u20$core..fmt..Write..write_fmt..SpecWriteFmt$GT$14spec_write_fmt17h972d0420143bb8daE+0x94>
  94:	24 01                	and    $0x1,%al
  96:	88 44 24 1f          	mov    %al,0x1f(%rsp)
  9a:	8a 44 24 1f          	mov    0x1f(%rsp),%al
  9e:	24 01                	and    $0x1,%al
  a0:	48 83 c4 78          	add    $0x78,%rsp
  a4:	c3                   	ret

kernel-9b89dc178204b098.2fjpgr49rag8g6vxi93ivjiol.rcgu.o:     file format elf64-x86-64


Disassembly of section .text._ZN6x86_6412instructions6tables4lidt17he6ed4c90c9b1423cE:

0000000000000000 <_ZN6x86_6412instructions6tables4lidt17he6ed4c90c9b1423cE>:
   0:	50                   	push   %rax
   1:	48 89 3c 24          	mov    %rdi,(%rsp)
   5:	0f 01 1f             	lidt   (%rdi)
   8:	58                   	pop    %rax
   9:	c3                   	ret

kernel-9b89dc178204b098.2nuuv26ggvxzq9mkotzqezz43.rcgu.o:     file format elf64-x86-64


Disassembly of section .text._ZN4core4sync6atomic10AtomicBool21compare_exchange_weak17hf89469f12ce6881eE:

0000000000000000 <_ZN4core4sync6atomic10AtomicBool21compare_exchange_weak17hf89469f12ce6881eE>:
   0:	48 83 ec 28          	sub    $0x28,%rsp
   4:	44 88 c0             	mov    %r8b,%al
   7:	48 89 7c 24 10       	mov    %rdi,0x10(%rsp)
   c:	41 88 f0             	mov    %sil,%r8b
   f:	41 80 e0 01          	and    $0x1,%r8b
  13:	44 88 44 24 1a       	mov    %r8b,0x1a(%rsp)
  18:	41 88 d0             	mov    %dl,%r8b
  1b:	41 80 e0 01          	and    $0x1,%r8b
  1f:	44 88 44 24 1b       	mov    %r8b,0x1b(%rsp)
  24:	88 4c 24 1c          	mov    %cl,0x1c(%rsp)
  28:	88 44 24 1d          	mov    %al,0x1d(%rsp)
  2c:	48 89 7c 24 20       	mov    %rdi,0x20(%rsp)
  31:	40 80 e6 01          	and    $0x1,%sil
  35:	80 e2 01             	and    $0x1,%dl
  38:	40 0f b6 f6          	movzbl %sil,%esi
  3c:	0f b6 d2             	movzbl %dl,%edx
  3f:	0f b6 c9             	movzbl %cl,%ecx
  42:	44 0f b6 c0          	movzbl %al,%r8d
  46:	e8 00 00 00 00       	call   4b <_ZN4core4sync6atomic10AtomicBool21compare_exchange_weak17hf89469f12ce6881eE+0x4b>
  4b:	24 01                	and    $0x1,%al
  4d:	88 44 24 0e          	mov    %al,0xe(%rsp)
  51:	88 54 24 0f          	mov    %dl,0xf(%rsp)
  55:	8a 44 24 0e          	mov    0xe(%rsp),%al
  59:	24 01                	and    $0x1,%al
  5b:	0f b6 c0             	movzbl %al,%eax
  5e:	48 83 f8 00          	cmp    $0x0,%rax
  62:	75 1a                	jne    7e <_ZN4core4sync6atomic10AtomicBool21compare_exchange_weak17hf89469f12ce6881eE+0x7e>
  64:	8a 44 24 0f          	mov    0xf(%rsp),%al
  68:	88 44 24 1e          	mov    %al,0x1e(%rsp)
  6c:	3c 00                	cmp    $0x0,%al
  6e:	0f 95 c0             	setne  %al
  71:	24 01                	and    $0x1,%al
  73:	88 44 24 0d          	mov    %al,0xd(%rsp)
  77:	c6 44 24 0c 00       	movb   $0x0,0xc(%rsp)
  7c:	eb 18                	jmp    96 <_ZN4core4sync6atomic10AtomicBool21compare_exchange_weak17hf89469f12ce6881eE+0x96>
  7e:	8a 44 24 0f          	mov    0xf(%rsp),%al
  82:	88 44 24 1f          	mov    %al,0x1f(%rsp)
  86:	3c 00                	cmp    $0x0,%al
  88:	0f 95 c0             	setne  %al
  8b:	24 01                	and    $0x1,%al
  8d:	88 44 24 0d          	mov    %al,0xd(%rsp)
  91:	c6 44 24 0c 01       	movb   $0x1,0xc(%rsp)
  96:	8a 44 24 0c          	mov    0xc(%rsp),%al
  9a:	8a 54 24 0d          	mov    0xd(%rsp),%dl
  9e:	48 83 c4 28          	add    $0x28,%rsp
  a2:	c3                   	ret

Disassembly of section .text._ZN4core4sync6atomic10AtomicBool3new17h40ed7c5ea6d57628E:

0000000000000000 <_ZN4core4sync6atomic10AtomicBool3new17h40ed7c5ea6d57628E>:
   0:	48 83 ec 03          	sub    $0x3,%rsp
   4:	40 88 f8             	mov    %dil,%al
   7:	88 c1                	mov    %al,%cl
   9:	80 e1 01             	and    $0x1,%cl
   c:	88 4c 24 01          	mov    %cl,0x1(%rsp)
  10:	24 01                	and    $0x1,%al
  12:	88 44 24 02          	mov    %al,0x2(%rsp)
  16:	88 04 24             	mov    %al,(%rsp)
  19:	8a 04 24             	mov    (%rsp),%al
  1c:	48 83 c4 03          	add    $0x3,%rsp
  20:	c3                   	ret

Disassembly of section .text._ZN4core4sync6atomic10AtomicBool4load17h58359057ada7bbf9E:

0000000000000000 <_ZN4core4sync6atomic10AtomicBool4load17h58359057ada7bbf9E>:
   0:	48 83 ec 18          	sub    $0x18,%rsp
   4:	40 88 f0             	mov    %sil,%al
   7:	48 89 3c 24          	mov    %rdi,(%rsp)
   b:	88 44 24 0f          	mov    %al,0xf(%rsp)
   f:	48 89 7c 24 10       	mov    %rdi,0x10(%rsp)
  14:	0f b6 f0             	movzbl %al,%esi
  17:	e8 00 00 00 00       	call   1c <_ZN4core4sync6atomic10AtomicBool4load17h58359057ada7bbf9E+0x1c>
  1c:	3c 00                	cmp    $0x0,%al
  1e:	0f 95 c0             	setne  %al
  21:	24 01                	and    $0x1,%al
  23:	48 83 c4 18          	add    $0x18,%rsp
  27:	c3                   	ret

Disassembly of section .text._ZN4core4sync6atomic10AtomicBool5store17he9c712fbf15034b9E:

0000000000000000 <_ZN4core4sync6atomic10AtomicBool5store17he9c712fbf15034b9E>:
   0:	48 83 ec 18          	sub    $0x18,%rsp
   4:	88 d0                	mov    %dl,%al
   6:	40 88 f1             	mov    %sil,%cl
   9:	48 89 3c 24          	mov    %rdi,(%rsp)
   d:	88 ca                	mov    %cl,%dl
   f:	80 e2 01             	and    $0x1,%dl
  12:	88 54 24 0e          	mov    %dl,0xe(%rsp)
  16:	88 44 24 0f          	mov    %al,0xf(%rsp)
  1a:	48 89 7c 24 10       	mov    %rdi,0x10(%rsp)
  1f:	80 e1 01             	and    $0x1,%cl
  22:	0f b6 f1             	movzbl %cl,%esi
  25:	0f b6 d0             	movzbl %al,%edx
  28:	e8 00 00 00 00       	call   2d <_ZN4core4sync6atomic10AtomicBool5store17he9c712fbf15034b9E+0x2d>
  2d:	48 83 c4 18          	add    $0x18,%rsp
  31:	c3                   	ret

Disassembly of section .text._ZN4core4sync6atomic14spin_loop_hint17h0bb24b297dc6aaf2E:

0000000000000000 <_ZN4core4sync6atomic14spin_loop_hint17h0bb24b297dc6aaf2E>:
   0:	50                   	push   %rax
   1:	e8 00 00 00 00       	call   6 <_ZN4core4sync6atomic14spin_loop_hint17h0bb24b297dc6aaf2E+0x6>
   6:	58                   	pop    %rax
   7:	c3                   	ret

Disassembly of section .text._ZN4core4sync6atomic8AtomicU816compare_exchange17hd3345b4cabbebbf1E:

0000000000000000 <_ZN4core4sync6atomic8AtomicU816compare_exchange17hd3345b4cabbebbf1E>:
   0:	48 83 ec 18          	sub    $0x18,%rsp
   4:	44 88 c0             	mov    %r8b,%al
   7:	48 89 3c 24          	mov    %rdi,(%rsp)
   b:	40 88 74 24 0c       	mov    %sil,0xc(%rsp)
  10:	88 54 24 0d          	mov    %dl,0xd(%rsp)
  14:	88 4c 24 0e          	mov    %cl,0xe(%rsp)
  18:	88 44 24 0f          	mov    %al,0xf(%rsp)
  1c:	48 89 7c 24 10       	mov    %rdi,0x10(%rsp)
  21:	40 0f b6 f6          	movzbl %sil,%esi
  25:	0f b6 d2             	movzbl %dl,%edx
  28:	0f b6 c9             	movzbl %cl,%ecx
  2b:	44 0f b6 c0          	movzbl %al,%r8d
  2f:	e8 00 00 00 00       	call   34 <_ZN4core4sync6atomic8AtomicU816compare_exchange17hd3345b4cabbebbf1E+0x34>
  34:	48 83 c4 18          	add    $0x18,%rsp
  38:	c3                   	ret

Disassembly of section .text._ZN4core4sync6atomic8AtomicU84load17hf115de555edc9d2dE:

0000000000000000 <_ZN4core4sync6atomic8AtomicU84load17hf115de555edc9d2dE>:
   0:	48 83 ec 18          	sub    $0x18,%rsp
   4:	40 88 f0             	mov    %sil,%al
   7:	48 89 3c 24          	mov    %rdi,(%rsp)
   b:	88 44 24 0f          	mov    %al,0xf(%rsp)
   f:	48 89 7c 24 10       	mov    %rdi,0x10(%rsp)
  14:	0f b6 f0             	movzbl %al,%esi
  17:	e8 00 00 00 00       	call   1c <_ZN4core4sync6atomic8AtomicU84load17hf115de555edc9d2dE+0x1c>
  1c:	48 83 c4 18          	add    $0x18,%rsp
  20:	c3                   	ret

Disassembly of section .text._ZN4core4sync6atomic8AtomicU85store17h330ab3bfe3bceb2aE:

0000000000000000 <_ZN4core4sync6atomic8AtomicU85store17h330ab3bfe3bceb2aE>:
   0:	48 83 ec 18          	sub    $0x18,%rsp
   4:	88 d0                	mov    %dl,%al
   6:	40 88 f1             	mov    %sil,%cl
   9:	48 89 3c 24          	mov    %rdi,(%rsp)
   d:	88 4c 24 0e          	mov    %cl,0xe(%rsp)
  11:	88 44 24 0f          	mov    %al,0xf(%rsp)
  15:	48 89 7c 24 10       	mov    %rdi,0x10(%rsp)
  1a:	0f b6 f1             	movzbl %cl,%esi
  1d:	0f b6 d0             	movzbl %al,%edx
  20:	e8 00 00 00 00       	call   25 <_ZN4core4sync6atomic8AtomicU85store17h330ab3bfe3bceb2aE+0x25>
  25:	48 83 c4 18          	add    $0x18,%rsp
  29:	c3                   	ret

Disassembly of section .text._ZN4core4sync6atomic8AtomicU87get_mut17hf25420a21b5e62a1E:

0000000000000000 <_ZN4core4sync6atomic8AtomicU87get_mut17hf25420a21b5e62a1E>:
   0:	48 83 ec 10          	sub    $0x10,%rsp
   4:	48 89 f8             	mov    %rdi,%rax
   7:	48 89 04 24          	mov    %rax,(%rsp)
   b:	48 89 44 24 08       	mov    %rax,0x8(%rsp)
  10:	48 83 c4 10          	add    $0x10,%rsp
  14:	c3                   	ret

kernel-9b89dc178204b098.34l207t92t7g1ujk0txyzu1jk.rcgu.o:     file format elf64-x86-64


Disassembly of section .text._ZN8volatile17Volatile$LT$T$GT$4read17hfe3f167f9d67b67fE:

0000000000000000 <_ZN8volatile17Volatile$LT$T$GT$4read17hfe3f167f9d67b67fE>:
   0:	50                   	push   %rax
   1:	48 89 3c 24          	mov    %rdi,(%rsp)
   5:	e8 00 00 00 00       	call   a <_ZN8volatile17Volatile$LT$T$GT$4read17hfe3f167f9d67b67fE+0xa>
   a:	59                   	pop    %rcx
   b:	c3                   	ret

Disassembly of section .text._ZN8volatile17Volatile$LT$T$GT$5write17h069f4ad9c36cded3E:

0000000000000000 <_ZN8volatile17Volatile$LT$T$GT$5write17h069f4ad9c36cded3E>:
   0:	48 83 ec 18          	sub    $0x18,%rsp
   4:	88 d0                	mov    %dl,%al
   6:	40 88 f1             	mov    %sil,%cl
   9:	48 89 7c 24 08       	mov    %rdi,0x8(%rsp)
   e:	88 4c 24 16          	mov    %cl,0x16(%rsp)
  12:	88 44 24 17          	mov    %al,0x17(%rsp)
  16:	0f b6 f1             	movzbl %cl,%esi
  19:	0f b6 d0             	movzbl %al,%edx
  1c:	e8 00 00 00 00       	call   21 <_ZN8volatile17Volatile$LT$T$GT$5write17h069f4ad9c36cded3E+0x21>
  21:	48 83 c4 18          	add    $0x18,%rsp
  25:	c3                   	ret

kernel-9b89dc178204b098.3x2raqa6paakvjaxn53i9srij.rcgu.o:     file format elf64-x86-64


Disassembly of section .text._ZN89_$LT$spin..mutex..spin..SpinMutexGuard$LT$T$GT$$u20$as$u20$core..ops..deref..DerefMut$GT$9deref_mut17h218c3d7c95e8f43cE:

0000000000000000 <_ZN89_$LT$spin..mutex..spin..SpinMutexGuard$LT$T$GT$$u20$as$u20$core..ops..deref..DerefMut$GT$9deref_mut17h218c3d7c95e8f43cE>:
   0:	50                   	push   %rax
   1:	48 89 3c 24          	mov    %rdi,(%rsp)
   5:	48 8b 47 08          	mov    0x8(%rdi),%rax
   9:	59                   	pop    %rcx
   a:	c3                   	ret

kernel-9b89dc178204b098.49blegqj3miedlc4nd84w9q12.rcgu.o:     file format elf64-x86-64


Disassembly of section .text._ZN43_$LT$u16$u20$as$u20$bit_field..BitField$GT$7set_bit17h110d33e78567507fE:

0000000000000000 <_ZN43_$LT$u16$u20$as$u20$bit_field..BitField$GT$7set_bit17h110d33e78567507fE>:
   0:	48 83 ec 38          	sub    $0x38,%rsp
   4:	48 89 0c 24          	mov    %rcx,(%rsp)
   8:	48 89 74 24 08       	mov    %rsi,0x8(%rsp)
   d:	48 89 7c 24 10       	mov    %rdi,0x10(%rsp)
  12:	88 d0                	mov    %dl,%al
  14:	88 44 24 1f          	mov    %al,0x1f(%rsp)
  18:	48 89 7c 24 20       	mov    %rdi,0x20(%rsp)
  1d:	48 89 74 24 28       	mov    %rsi,0x28(%rsp)
  22:	24 01                	and    $0x1,%al
  24:	88 44 24 37          	mov    %al,0x37(%rsp)
  28:	48 83 fe 10          	cmp    $0x10,%rsi
  2c:	72 15                	jb     43 <_ZN43_$LT$u16$u20$as$u20$bit_field..BitField$GT$7set_bit17h110d33e78567507fE+0x43>
  2e:	48 8b 14 24          	mov    (%rsp),%rdx
  32:	48 8d 3d 00 00 00 00 	lea    0x0(%rip),%rdi        # 39 <_ZN43_$LT$u16$u20$as$u20$bit_field..BitField$GT$7set_bit17h110d33e78567507fE+0x39>
  39:	be 28 00 00 00       	mov    $0x28,%esi
  3e:	e8 00 00 00 00       	call   43 <_ZN43_$LT$u16$u20$as$u20$bit_field..BitField$GT$7set_bit17h110d33e78567507fE+0x43>
  43:	8a 44 24 1f          	mov    0x1f(%rsp),%al
  47:	a8 01                	test   $0x1,%al
  49:	75 0f                	jne    5a <_ZN43_$LT$u16$u20$as$u20$bit_field..BitField$GT$7set_bit17h110d33e78567507fE+0x5a>
  4b:	eb 00                	jmp    4d <_ZN43_$LT$u16$u20$as$u20$bit_field..BitField$GT$7set_bit17h110d33e78567507fE+0x4d>
  4d:	48 8b 44 24 08       	mov    0x8(%rsp),%rax
  52:	48 83 f8 10          	cmp    $0x10,%rax
  56:	72 0f                	jb     67 <_ZN43_$LT$u16$u20$as$u20$bit_field..BitField$GT$7set_bit17h110d33e78567507fE+0x67>
  58:	eb 31                	jmp    8b <_ZN43_$LT$u16$u20$as$u20$bit_field..BitField$GT$7set_bit17h110d33e78567507fE+0x8b>
  5a:	48 8b 44 24 08       	mov    0x8(%rsp),%rax
  5f:	48 83 f8 10          	cmp    $0x10,%rax
  63:	72 39                	jb     9e <_ZN43_$LT$u16$u20$as$u20$bit_field..BitField$GT$7set_bit17h110d33e78567507fE+0x9e>
  65:	eb 57                	jmp    be <_ZN43_$LT$u16$u20$as$u20$bit_field..BitField$GT$7set_bit17h110d33e78567507fE+0xbe>
  67:	48 8b 44 24 10       	mov    0x10(%rsp),%rax
  6c:	48 8b 4c 24 08       	mov    0x8(%rsp),%rcx
  71:	48 83 e1 0f          	and    $0xf,%rcx
  75:	66 ba 01 00          	mov    $0x1,%dx
  79:	66 d3 e2             	shl    %cl,%dx
  7c:	66 89 d1             	mov    %dx,%cx
  7f:	66 83 f1 ff          	xor    $0xffff,%cx
  83:	66 23 08             	and    (%rax),%cx
  86:	66 89 08             	mov    %cx,(%rax)
  89:	eb 09                	jmp    94 <_ZN43_$LT$u16$u20$as$u20$bit_field..BitField$GT$7set_bit17h110d33e78567507fE+0x94>
  8b:	48 8b 3c 24          	mov    (%rsp),%rdi
  8f:	e8 00 00 00 00       	call   94 <_ZN43_$LT$u16$u20$as$u20$bit_field..BitField$GT$7set_bit17h110d33e78567507fE+0x94>
  94:	48 8b 44 24 10       	mov    0x10(%rsp),%rax
  99:	48 83 c4 38          	add    $0x38,%rsp
  9d:	c3                   	ret
  9e:	48 8b 44 24 10       	mov    0x10(%rsp),%rax
  a3:	48 8b 4c 24 08       	mov    0x8(%rsp),%rcx
  a8:	48 83 e1 0f          	and    $0xf,%rcx
  ac:	66 ba 01 00          	mov    $0x1,%dx
  b0:	66 d3 e2             	shl    %cl,%dx
  b3:	66 89 d1             	mov    %dx,%cx
  b6:	66 0b 08             	or     (%rax),%cx
  b9:	66 89 08             	mov    %cx,(%rax)
  bc:	eb d6                	jmp    94 <_ZN43_$LT$u16$u20$as$u20$bit_field..BitField$GT$7set_bit17h110d33e78567507fE+0x94>
  be:	48 8b 3c 24          	mov    (%rsp),%rdi
  c2:	e8 00 00 00 00       	call   c7 <_ZN43_$LT$u16$u20$as$u20$bit_field..BitField$GT$7set_bit17h110d33e78567507fE+0xc7>

kernel-9b89dc178204b098.4if3133l1nb0kz8oqvwpdt098.rcgu.o:     file format elf64-x86-64


Disassembly of section .text._ZN6x86_6412instructions12segmentation106_$LT$impl$u20$x86_64..registers..segmentation..Segment$u20$for$u20$x86_64..registers..segmentation..CS$GT$7get_reg17h3c52df4ebd4cc1ffE:

0000000000000000 <_ZN6x86_6412instructions12segmentation106_$LT$impl$u20$x86_64..registers..segmentation..Segment$u20$for$u20$x86_64..registers..segmentation..CS$GT$7get_reg17h3c52df4ebd4cc1ffE>:
   0:	48 83 ec 02          	sub    $0x2,%rsp
   4:	8c c8                	mov    %cs,%eax
   6:	66 89 04 24          	mov    %ax,(%rsp)
   a:	66 8b 04 24          	mov    (%rsp),%ax
   e:	48 83 c4 02          	add    $0x2,%rsp
  12:	c3                   	ret

kernel-9b89dc178204b098.5apx2f3ks5fj3sy9u76cpsf8w.rcgu.o:     file format elf64-x86-64


Disassembly of section .text._ZN4core3ptr8non_null16NonNull$LT$T$GT$4cast17h695fff5247d466d7E:

0000000000000000 <_ZN4core3ptr8non_null16NonNull$LT$T$GT$4cast17h695fff5247d466d7E>:
   0:	48 83 ec 10          	sub    $0x10,%rsp
   4:	48 89 f8             	mov    %rdi,%rax
   7:	48 89 04 24          	mov    %rax,(%rsp)
   b:	48 89 44 24 08       	mov    %rax,0x8(%rsp)
  10:	48 83 c4 10          	add    $0x10,%rsp
  14:	c3                   	ret

Disassembly of section .text._ZN90_$LT$core..ptr..non_null..NonNull$LT$T$GT$$u20$as$u20$core..convert..From$LT$$RF$T$GT$$GT$4from17h771fd042142e9148E:

0000000000000000 <_ZN90_$LT$core..ptr..non_null..NonNull$LT$T$GT$$u20$as$u20$core..convert..From$LT$$RF$T$GT$$GT$4from17h771fd042142e9148E>:
   0:	50                   	push   %rax
   1:	48 89 f8             	mov    %rdi,%rax
   4:	48 89 04 24          	mov    %rax,(%rsp)
   8:	59                   	pop    %rcx
   9:	c3                   	ret

kernel-9b89dc178204b098.5iafs0aremy4cjdq3yejo4gkk.rcgu.o:     file format elf64-x86-64


Disassembly of section .text._ZN6kernel10interrupts15init_interrupts17h6faf3e16ffd35da4E:

0000000000000000 <_ZN6kernel10interrupts15init_interrupts17h6faf3e16ffd35da4E>:
   0:	50                   	push   %rax
   1:	48 8d 3d 00 00 00 00 	lea    0x0(%rip),%rdi        # 8 <_ZN6kernel10interrupts15init_interrupts17h6faf3e16ffd35da4E+0x8>
   8:	e8 00 00 00 00       	call   d <_ZN6kernel10interrupts15init_interrupts17h6faf3e16ffd35da4E+0xd>
   d:	48 89 c7             	mov    %rax,%rdi
  10:	e8 00 00 00 00       	call   15 <_ZN6kernel10interrupts15init_interrupts17h6faf3e16ffd35da4E+0x15>
  15:	58                   	pop    %rax
  16:	c3                   	ret

Disassembly of section .text._ZN6kernel10interrupts18breakpoint_handler17h9c473dd8f9b063c2E:

0000000000000000 <_ZN6kernel10interrupts18breakpoint_handler17h9c473dd8f9b063c2E>:
   0:	41 53                	push   %r11
   2:	41 52                	push   %r10
   4:	41 51                	push   %r9
   6:	41 50                	push   %r8
   8:	57                   	push   %rdi
   9:	56                   	push   %rsi
   a:	52                   	push   %rdx
   b:	51                   	push   %rcx
   c:	53                   	push   %rbx
   d:	50                   	push   %rax
   e:	48 81 ec 68 01 00 00 	sub    $0x168,%rsp
  15:	fc                   	cld
  16:	48 8d bc 24 b8 01 00 	lea    0x1b8(%rsp),%rdi
  1d:	00 
  1e:	48 89 bc 24 40 01 00 	mov    %rdi,0x140(%rsp)
  25:	00 
  26:	48 89 bc 24 58 01 00 	mov    %rdi,0x158(%rsp)
  2d:	00 
  2e:	48 8d 05 00 00 00 00 	lea    0x0(%rip),%rax        # 35 <_ZN6kernel10interrupts18breakpoint_handler17h9c473dd8f9b063c2E+0x35>
  35:	48 89 44 24 10       	mov    %rax,0x10(%rsp)
  3a:	48 89 84 24 60 01 00 	mov    %rax,0x160(%rsp)
  41:	00 
  42:	e8 00 00 00 00       	call   47 <_ZN6kernel10interrupts18breakpoint_handler17h9c473dd8f9b063c2E+0x47>
  47:	48 89 c7             	mov    %rax,%rdi
  4a:	e8 00 00 00 00       	call   4f <_ZN6kernel10interrupts18breakpoint_handler17h9c473dd8f9b063c2E+0x4f>
  4f:	48 89 c1             	mov    %rax,%rcx
  52:	48 8b 44 24 10       	mov    0x10(%rsp),%rax
  57:	48 89 8c 24 48 01 00 	mov    %rcx,0x148(%rsp)
  5e:	00 
  5f:	48 89 84 24 50 01 00 	mov    %rax,0x150(%rsp)
  66:	00 
  67:	48 8b 84 24 48 01 00 	mov    0x148(%rsp),%rax
  6e:	00 
  6f:	48 8b 8c 24 50 01 00 	mov    0x150(%rsp),%rcx
  76:	00 
  77:	48 89 4c 24 68       	mov    %rcx,0x68(%rsp)
  7c:	48 89 44 24 60       	mov    %rax,0x60(%rsp)
  81:	48 8b 44 24 60       	mov    0x60(%rsp),%rax
  86:	48 8b 4c 24 68       	mov    0x68(%rsp),%rcx
  8b:	48 89 4c 24 58       	mov    %rcx,0x58(%rsp)
  90:	48 89 44 24 50       	mov    %rax,0x50(%rsp)
  95:	c6 84 24 e7 00 00 00 	movb   $0x3,0xe7(%rsp)
  9c:	03 
  9d:	48 c7 84 24 e8 00 00 	movq   $0x2,0xe8(%rsp)
  a4:	00 02 00 00 00 
  a9:	48 c7 84 24 f8 00 00 	movq   $0x2,0xf8(%rsp)
  b0:	00 02 00 00 00 
  b5:	8a 9c 24 e7 00 00 00 	mov    0xe7(%rsp),%bl
  bc:	48 8b b4 24 e8 00 00 	mov    0xe8(%rsp),%rsi
  c3:	00 
  c4:	48 8b 94 24 f0 00 00 	mov    0xf0(%rsp),%rdx
  cb:	00 
  cc:	48 8b 8c 24 f8 00 00 	mov    0xf8(%rsp),%rcx
  d3:	00 
  d4:	48 8b 84 24 00 01 00 	mov    0x100(%rsp),%rax
  db:	00 
  dc:	48 c7 84 24 08 01 00 	movq   $0x0,0x108(%rsp)
  e3:	00 00 00 00 00 
  e8:	c7 84 24 14 01 00 00 	movl   $0x20,0x114(%rsp)
  ef:	20 00 00 00 
  f3:	88 9c 24 1b 01 00 00 	mov    %bl,0x11b(%rsp)
  fa:	c7 84 24 1c 01 00 00 	movl   $0x4,0x11c(%rsp)
 101:	04 00 00 00 
 105:	48 89 b4 24 20 01 00 	mov    %rsi,0x120(%rsp)
 10c:	00 
 10d:	48 89 94 24 28 01 00 	mov    %rdx,0x128(%rsp)
 114:	00 
 115:	48 89 8c 24 30 01 00 	mov    %rcx,0x130(%rsp)
 11c:	00 
 11d:	48 89 84 24 38 01 00 	mov    %rax,0x138(%rsp)
 124:	00 
 125:	48 c7 84 24 c8 00 00 	movq   $0x0,0xc8(%rsp)
 12c:	00 00 00 00 00 
 131:	c7 84 24 d0 00 00 00 	movl   $0x20,0xd0(%rsp)
 138:	20 00 00 00 
 13c:	88 9c 24 d8 00 00 00 	mov    %bl,0xd8(%rsp)
 143:	c7 84 24 d4 00 00 00 	movl   $0x4,0xd4(%rsp)
 14a:	04 00 00 00 
 14e:	48 89 b4 24 a8 00 00 	mov    %rsi,0xa8(%rsp)
 155:	00 
 156:	48 89 94 24 b0 00 00 	mov    %rdx,0xb0(%rsp)
 15d:	00 
 15e:	48 89 8c 24 b8 00 00 	mov    %rcx,0xb8(%rsp)
 165:	00 
 166:	48 89 84 24 c0 00 00 	mov    %rax,0xc0(%rsp)
 16d:	00 
 16e:	48 8b 84 24 d8 00 00 	mov    0xd8(%rsp),%rax
 175:	00 
 176:	48 89 84 24 a0 00 00 	mov    %rax,0xa0(%rsp)
 17d:	00 
 17e:	48 8b 84 24 d0 00 00 	mov    0xd0(%rsp),%rax
 185:	00 
 186:	48 89 84 24 98 00 00 	mov    %rax,0x98(%rsp)
 18d:	00 
 18e:	48 8b 84 24 c8 00 00 	mov    0xc8(%rsp),%rax
 195:	00 
 196:	48 89 84 24 90 00 00 	mov    %rax,0x90(%rsp)
 19d:	00 
 19e:	48 8b 84 24 c0 00 00 	mov    0xc0(%rsp),%rax
 1a5:	00 
 1a6:	48 89 84 24 88 00 00 	mov    %rax,0x88(%rsp)
 1ad:	00 
 1ae:	48 8b 84 24 b8 00 00 	mov    0xb8(%rsp),%rax
 1b5:	00 
 1b6:	48 89 84 24 80 00 00 	mov    %rax,0x80(%rsp)
 1bd:	00 
 1be:	48 8b 84 24 a8 00 00 	mov    0xa8(%rsp),%rax
 1c5:	00 
 1c6:	48 8b 8c 24 b0 00 00 	mov    0xb0(%rsp),%rcx
 1cd:	00 
 1ce:	48 89 4c 24 78       	mov    %rcx,0x78(%rsp)
 1d3:	48 89 44 24 70       	mov    %rax,0x70(%rsp)
 1d8:	48 89 e0             	mov    %rsp,%rax
 1db:	48 c7 00 01 00 00 00 	movq   $0x1,(%rax)
 1e2:	48 8d 35 00 00 00 00 	lea    0x0(%rip),%rsi        # 1e9 <_ZN6kernel10interrupts18breakpoint_handler17h9c473dd8f9b063c2E+0x1e9>
 1e9:	48 8d 7c 24 20       	lea    0x20(%rsp),%rdi
 1ee:	48 89 7c 24 18       	mov    %rdi,0x18(%rsp)
 1f3:	ba 02 00 00 00       	mov    $0x2,%edx
 1f8:	48 8d 4c 24 50       	lea    0x50(%rsp),%rcx
 1fd:	41 b8 01 00 00 00    	mov    $0x1,%r8d
 203:	4c 8d 4c 24 70       	lea    0x70(%rsp),%r9
 208:	e8 00 00 00 00       	call   20d <_ZN6kernel10interrupts18breakpoint_handler17h9c473dd8f9b063c2E+0x20d>
 20d:	48 8b 7c 24 18       	mov    0x18(%rsp),%rdi
 212:	e8 00 00 00 00       	call   217 <_ZN6kernel10interrupts18breakpoint_handler17h9c473dd8f9b063c2E+0x217>
 217:	48 81 c4 68 01 00 00 	add    $0x168,%rsp
 21e:	58                   	pop    %rax
 21f:	5b                   	pop    %rbx
 220:	59                   	pop    %rcx
 221:	5a                   	pop    %rdx
 222:	5e                   	pop    %rsi
 223:	5f                   	pop    %rdi
 224:	41 58                	pop    %r8
 226:	41 59                	pop    %r9
 228:	41 5a                	pop    %r10
 22a:	41 5b                	pop    %r11
 22c:	48 cf                	iretq

Disassembly of section .text._ZN6kernel10interrupts20double_fault_handler17hf088d3706274f047E:

0000000000000000 <_ZN6kernel10interrupts20double_fault_handler17hf088d3706274f047E>:
   0:	50                   	push   %rax
   1:	41 53                	push   %r11
   3:	41 52                	push   %r10
   5:	41 51                	push   %r9
   7:	41 50                	push   %r8
   9:	57                   	push   %rdi
   a:	56                   	push   %rsi
   b:	52                   	push   %rdx
   c:	51                   	push   %rcx
   d:	53                   	push   %rbx
   e:	50                   	push   %rax
   f:	48 81 ec 70 01 00 00 	sub    $0x170,%rsp
  16:	fc                   	cld
  17:	48 8b 84 24 c8 01 00 	mov    0x1c8(%rsp),%rax
  1e:	00 
  1f:	48 8d bc 24 d0 01 00 	lea    0x1d0(%rsp),%rdi
  26:	00 
  27:	48 89 bc 24 48 01 00 	mov    %rdi,0x148(%rsp)
  2e:	00 
  2f:	48 89 bc 24 60 01 00 	mov    %rdi,0x160(%rsp)
  36:	00 
  37:	48 8d 05 00 00 00 00 	lea    0x0(%rip),%rax        # 3e <_ZN6kernel10interrupts20double_fault_handler17hf088d3706274f047E+0x3e>
  3e:	48 89 44 24 18       	mov    %rax,0x18(%rsp)
  43:	48 89 84 24 68 01 00 	mov    %rax,0x168(%rsp)
  4a:	00 
  4b:	e8 00 00 00 00       	call   50 <_ZN6kernel10interrupts20double_fault_handler17hf088d3706274f047E+0x50>
  50:	48 89 c7             	mov    %rax,%rdi
  53:	e8 00 00 00 00       	call   58 <_ZN6kernel10interrupts20double_fault_handler17hf088d3706274f047E+0x58>
  58:	48 89 c1             	mov    %rax,%rcx
  5b:	48 8b 44 24 18       	mov    0x18(%rsp),%rax
  60:	48 89 8c 24 50 01 00 	mov    %rcx,0x150(%rsp)
  67:	00 
  68:	48 89 84 24 58 01 00 	mov    %rax,0x158(%rsp)
  6f:	00 
  70:	48 8b 84 24 50 01 00 	mov    0x150(%rsp),%rax
  77:	00 
  78:	48 8b 8c 24 58 01 00 	mov    0x158(%rsp),%rcx
  7f:	00 
  80:	48 89 4c 24 70       	mov    %rcx,0x70(%rsp)
  85:	48 89 44 24 68       	mov    %rax,0x68(%rsp)
  8a:	48 8b 44 24 68       	mov    0x68(%rsp),%rax
  8f:	48 8b 4c 24 70       	mov    0x70(%rsp),%rcx
  94:	48 89 4c 24 60       	mov    %rcx,0x60(%rsp)
  99:	48 89 44 24 58       	mov    %rax,0x58(%rsp)
  9e:	c6 84 24 ef 00 00 00 	movb   $0x3,0xef(%rsp)
  a5:	03 
  a6:	48 c7 84 24 f0 00 00 	movq   $0x2,0xf0(%rsp)
  ad:	00 02 00 00 00 
  b2:	48 c7 84 24 00 01 00 	movq   $0x2,0x100(%rsp)
  b9:	00 02 00 00 00 
  be:	8a 9c 24 ef 00 00 00 	mov    0xef(%rsp),%bl
  c5:	48 8b b4 24 f0 00 00 	mov    0xf0(%rsp),%rsi
  cc:	00 
  cd:	48 8b 94 24 f8 00 00 	mov    0xf8(%rsp),%rdx
  d4:	00 
  d5:	48 8b 8c 24 00 01 00 	mov    0x100(%rsp),%rcx
  dc:	00 
  dd:	48 8b 84 24 08 01 00 	mov    0x108(%rsp),%rax
  e4:	00 
  e5:	48 c7 84 24 10 01 00 	movq   $0x0,0x110(%rsp)
  ec:	00 00 00 00 00 
  f1:	c7 84 24 1c 01 00 00 	movl   $0x20,0x11c(%rsp)
  f8:	20 00 00 00 
  fc:	88 9c 24 23 01 00 00 	mov    %bl,0x123(%rsp)
 103:	c7 84 24 24 01 00 00 	movl   $0x4,0x124(%rsp)
 10a:	04 00 00 00 
 10e:	48 89 b4 24 28 01 00 	mov    %rsi,0x128(%rsp)
 115:	00 
 116:	48 89 94 24 30 01 00 	mov    %rdx,0x130(%rsp)
 11d:	00 
 11e:	48 89 8c 24 38 01 00 	mov    %rcx,0x138(%rsp)
 125:	00 
 126:	48 89 84 24 40 01 00 	mov    %rax,0x140(%rsp)
 12d:	00 
 12e:	48 c7 84 24 d0 00 00 	movq   $0x0,0xd0(%rsp)
 135:	00 00 00 00 00 
 13a:	c7 84 24 d8 00 00 00 	movl   $0x20,0xd8(%rsp)
 141:	20 00 00 00 
 145:	88 9c 24 e0 00 00 00 	mov    %bl,0xe0(%rsp)
 14c:	c7 84 24 dc 00 00 00 	movl   $0x4,0xdc(%rsp)
 153:	04 00 00 00 
 157:	48 89 b4 24 b0 00 00 	mov    %rsi,0xb0(%rsp)
 15e:	00 
 15f:	48 89 94 24 b8 00 00 	mov    %rdx,0xb8(%rsp)
 166:	00 
 167:	48 89 8c 24 c0 00 00 	mov    %rcx,0xc0(%rsp)
 16e:	00 
 16f:	48 89 84 24 c8 00 00 	mov    %rax,0xc8(%rsp)
 176:	00 
 177:	48 8b 84 24 e0 00 00 	mov    0xe0(%rsp),%rax
 17e:	00 
 17f:	48 89 84 24 a8 00 00 	mov    %rax,0xa8(%rsp)
 186:	00 
 187:	48 8b 84 24 d8 00 00 	mov    0xd8(%rsp),%rax
 18e:	00 
 18f:	48 89 84 24 a0 00 00 	mov    %rax,0xa0(%rsp)
 196:	00 
 197:	48 8b 84 24 d0 00 00 	mov    0xd0(%rsp),%rax
 19e:	00 
 19f:	48 89 84 24 98 00 00 	mov    %rax,0x98(%rsp)
 1a6:	00 
 1a7:	48 8b 84 24 c8 00 00 	mov    0xc8(%rsp),%rax
 1ae:	00 
 1af:	48 89 84 24 90 00 00 	mov    %rax,0x90(%rsp)
 1b6:	00 
 1b7:	48 8b 84 24 c0 00 00 	mov    0xc0(%rsp),%rax
 1be:	00 
 1bf:	48 89 84 24 88 00 00 	mov    %rax,0x88(%rsp)
 1c6:	00 
 1c7:	48 8b 84 24 b0 00 00 	mov    0xb0(%rsp),%rax
 1ce:	00 
 1cf:	48 8b 8c 24 b8 00 00 	mov    0xb8(%rsp),%rcx
 1d6:	00 
 1d7:	48 89 8c 24 80 00 00 	mov    %rcx,0x80(%rsp)
 1de:	00 
 1df:	48 89 44 24 78       	mov    %rax,0x78(%rsp)
 1e4:	48 89 e0             	mov    %rsp,%rax
 1e7:	48 c7 00 01 00 00 00 	movq   $0x1,(%rax)
 1ee:	48 8d 35 00 00 00 00 	lea    0x0(%rip),%rsi        # 1f5 <_ZN6kernel10interrupts20double_fault_handler17hf088d3706274f047E+0x1f5>
 1f5:	48 8d 7c 24 28       	lea    0x28(%rsp),%rdi
 1fa:	48 89 7c 24 20       	mov    %rdi,0x20(%rsp)
 1ff:	48 8d 4c 24 58       	lea    0x58(%rsp),%rcx
 204:	41 b8 01 00 00 00    	mov    $0x1,%r8d
 20a:	4c 8d 4c 24 78       	lea    0x78(%rsp),%r9
 20f:	4c 89 c2             	mov    %r8,%rdx
 212:	e8 00 00 00 00       	call   217 <_ZN6kernel10interrupts20double_fault_handler17hf088d3706274f047E+0x217>
 217:	48 8b 7c 24 20       	mov    0x20(%rsp),%rdi
 21c:	48 8d 35 00 00 00 00 	lea    0x0(%rip),%rsi        # 223 <_ZN6kernel10interrupts20double_fault_handler17hf088d3706274f047E+0x223>
 223:	e8 00 00 00 00       	call   228 <_ZN6kernel10interrupts20double_fault_handler17hf088d3706274f047E+0x228>

Disassembly of section .text._ZN67_$LT$kernel..interrupts..IDT$u20$as$u20$core..ops..deref..Deref$GT$5deref17h6e0ba765f19e3665E:

0000000000000000 <_ZN67_$LT$kernel..interrupts..IDT$u20$as$u20$core..ops..deref..Deref$GT$5deref17h6e0ba765f19e3665E>:
   0:	48 83 ec 18          	sub    $0x18,%rsp
   4:	48 89 7c 24 08       	mov    %rdi,0x8(%rsp)
   9:	48 8d 05 00 00 00 00 	lea    0x0(%rip),%rax        # 10 <_ZN67_$LT$kernel..interrupts..IDT$u20$as$u20$core..ops..deref..Deref$GT$5deref17h6e0ba765f19e3665E+0x10>
  10:	48 89 44 24 10       	mov    %rax,0x10(%rsp)
  15:	48 8d 3d 00 00 00 00 	lea    0x0(%rip),%rdi        # 1c <_ZN67_$LT$kernel..interrupts..IDT$u20$as$u20$core..ops..deref..Deref$GT$5deref17h6e0ba765f19e3665E+0x1c>
  1c:	e8 00 00 00 00       	call   21 <_ZN67_$LT$kernel..interrupts..IDT$u20$as$u20$core..ops..deref..Deref$GT$5deref17h6e0ba765f19e3665E+0x21>
  21:	48 83 c4 18          	add    $0x18,%rsp
  25:	c3                   	ret

kernel-9b89dc178204b098.5un9mwy5e0xylsnpq16d2y4wt.rcgu.o:     file format elf64-x86-64


Disassembly of section .text._ZN4core3ops8function6FnOnce9call_once17h7598dd6505cea073E:

0000000000000000 <_ZN4core3ops8function6FnOnce9call_once17h7598dd6505cea073E>:
   0:	48 81 ec 98 00 00 00 	sub    $0x98,%rsp
   7:	48 89 3c 24          	mov    %rdi,(%rsp)
   b:	48 89 7c 24 08       	mov    %rdi,0x8(%rsp)
  10:	c7 44 24 38 07 00 00 	movl   $0x7,0x38(%rsp)
  17:	00 
  18:	c7 44 24 3c 00 00 00 	movl   $0x0,0x3c(%rsp)
  1f:	00 
  20:	8b 7c 24 38          	mov    0x38(%rsp),%edi
  24:	8b 74 24 3c          	mov    0x3c(%rsp),%esi
  28:	e8 00 00 00 00       	call   2d <_ZN4core3ops8function6FnOnce9call_once17h7598dd6505cea073E+0x2d>
  2d:	48 c7 44 24 20 18 00 	movq   $0x18,0x20(%rsp)
  34:	00 00 
  36:	48 c7 44 24 28 00 00 	movq   $0x0,0x28(%rsp)
  3d:	00 00 
  3f:	88 44 24 30          	mov    %al,0x30(%rsp)
  43:	b8 00 80 0b 00       	mov    $0xb8000,%eax
  48:	48 89 44 24 18       	mov    %rax,0x18(%rsp)
  4d:	31 ff                	xor    %edi,%edi
  4f:	e8 00 00 00 00       	call   54 <_ZN4core3ops8function6FnOnce9call_once17h7598dd6505cea073E+0x54>
  54:	48 8b 3c 24          	mov    (%rsp),%rdi
  58:	88 84 24 97 00 00 00 	mov    %al,0x97(%rsp)
  5f:	8a 84 24 97 00 00 00 	mov    0x97(%rsp),%al
  66:	88 44 24 6f          	mov    %al,0x6f(%rsp)
  6a:	48 8b 44 24 18       	mov    0x18(%rsp),%rax
  6f:	48 89 44 24 70       	mov    %rax,0x70(%rsp)
  74:	48 8b 44 24 20       	mov    0x20(%rsp),%rax
  79:	48 89 44 24 78       	mov    %rax,0x78(%rsp)
  7e:	48 8b 44 24 28       	mov    0x28(%rsp),%rax
  83:	48 89 84 24 80 00 00 	mov    %rax,0x80(%rsp)
  8a:	00 
  8b:	48 8b 44 24 30       	mov    0x30(%rsp),%rax
  90:	48 89 84 24 88 00 00 	mov    %rax,0x88(%rsp)
  97:	00 
  98:	8a 44 24 6f          	mov    0x6f(%rsp),%al
  9c:	88 44 24 40          	mov    %al,0x40(%rsp)
  a0:	48 8b 44 24 70       	mov    0x70(%rsp),%rax
  a5:	48 89 44 24 48       	mov    %rax,0x48(%rsp)
  aa:	48 8b 44 24 78       	mov    0x78(%rsp),%rax
  af:	48 89 44 24 50       	mov    %rax,0x50(%rsp)
  b4:	48 8b 84 24 80 00 00 	mov    0x80(%rsp),%rax
  bb:	00 
  bc:	48 89 44 24 58       	mov    %rax,0x58(%rsp)
  c1:	48 8b 84 24 88 00 00 	mov    0x88(%rsp),%rax
  c8:	00 
  c9:	48 89 44 24 60       	mov    %rax,0x60(%rsp)
  ce:	48 8d 74 24 40       	lea    0x40(%rsp),%rsi
  d3:	ba 28 00 00 00       	mov    $0x28,%edx
  d8:	e8 00 00 00 00       	call   dd <_ZN4core3ops8function6FnOnce9call_once17h7598dd6505cea073E+0xdd>
  dd:	48 8b 44 24 08       	mov    0x8(%rsp),%rax
  e2:	48 81 c4 98 00 00 00 	add    $0x98,%rsp
  e9:	c3                   	ret

Disassembly of section .text._ZN4core3ops8function6FnOnce9call_once17h82fc6dde988ea7eaE:

0000000000000000 <_ZN4core3ops8function6FnOnce9call_once17h82fc6dde988ea7eaE>:
   0:	48 81 ec 28 10 00 00 	sub    $0x1028,%rsp
   7:	48 89 7c 24 08       	mov    %rdi,0x8(%rsp)
   c:	48 89 7c 24 10       	mov    %rdi,0x10(%rsp)
  11:	48 8d 7c 24 20       	lea    0x20(%rsp),%rdi
  16:	e8 00 00 00 00       	call   1b <_ZN4core3ops8function6FnOnce9call_once17h82fc6dde988ea7eaE+0x1b>
  1b:	48 8d 7c 24 20       	lea    0x20(%rsp),%rdi
  20:	48 83 c7 30          	add    $0x30,%rdi
  24:	48 8d 35 00 00 00 00 	lea    0x0(%rip),%rsi        # 2b <_ZN4core3ops8function6FnOnce9call_once17h82fc6dde988ea7eaE+0x2b>
  2b:	e8 00 00 00 00       	call   30 <_ZN4core3ops8function6FnOnce9call_once17h82fc6dde988ea7eaE+0x30>
  30:	48 8d 7c 24 20       	lea    0x20(%rsp),%rdi
  35:	48 81 c7 80 00 00 00 	add    $0x80,%rdi
  3c:	48 8d 35 00 00 00 00 	lea    0x0(%rip),%rsi        # 43 <_ZN4core3ops8function6FnOnce9call_once17h82fc6dde988ea7eaE+0x43>
  43:	e8 00 00 00 00       	call   48 <_ZN4core3ops8function6FnOnce9call_once17h82fc6dde988ea7eaE+0x48>
  48:	48 8b 7c 24 08       	mov    0x8(%rsp),%rdi
  4d:	48 8d 74 24 20       	lea    0x20(%rsp),%rsi
  52:	ba 00 10 00 00       	mov    $0x1000,%edx
  57:	e8 00 00 00 00       	call   5c <_ZN4core3ops8function6FnOnce9call_once17h82fc6dde988ea7eaE+0x5c>
  5c:	48 8b 44 24 10       	mov    0x10(%rsp),%rax
  61:	48 81 c4 28 10 00 00 	add    $0x1028,%rsp
  68:	c3                   	ret

Disassembly of section .text._ZN4core3ptr101drop_in_place$LT$lazy_static..lazy..Lazy$LT$x86_64..structures..idt..InterruptDescriptorTable$GT$$GT$17ha9d6270cb9a87927E:

0000000000000000 <_ZN4core3ptr101drop_in_place$LT$lazy_static..lazy..Lazy$LT$x86_64..structures..idt..InterruptDescriptorTable$GT$$GT$17ha9d6270cb9a87927E>:
   0:	50                   	push   %rax
   1:	48 89 3c 24          	mov    %rdi,(%rsp)
   5:	e8 00 00 00 00       	call   a <_ZN4core3ptr101drop_in_place$LT$lazy_static..lazy..Lazy$LT$x86_64..structures..idt..InterruptDescriptorTable$GT$$GT$17ha9d6270cb9a87927E+0xa>
   a:	58                   	pop    %rax
   b:	c3                   	ret

Disassembly of section .text._ZN4core3ptr102drop_in_place$LT$spin..once..Once$LT$spin..mutex..Mutex$LT$kernel..vga_driver..VGATerminal$GT$$GT$$GT$17h0d0168e6f95e4de9E:

0000000000000000 <_ZN4core3ptr102drop_in_place$LT$spin..once..Once$LT$spin..mutex..Mutex$LT$kernel..vga_driver..VGATerminal$GT$$GT$$GT$17h0d0168e6f95e4de9E>:
   0:	50                   	push   %rax
   1:	48 89 3c 24          	mov    %rdi,(%rsp)
   5:	e8 00 00 00 00       	call   a <_ZN4core3ptr102drop_in_place$LT$spin..once..Once$LT$spin..mutex..Mutex$LT$kernel..vga_driver..VGATerminal$GT$$GT$$GT$17h0d0168e6f95e4de9E+0xa>
   a:	58                   	pop    %rax
   b:	c3                   	ret

Disassembly of section .text._ZN4core3ptr109drop_in_place$LT$lazy_static..lazy..Lazy$LT$spin..mutex..Mutex$LT$kernel..vga_driver..VGATerminal$GT$$GT$$GT$17h2b9405345b86cfd7E:

0000000000000000 <_ZN4core3ptr109drop_in_place$LT$lazy_static..lazy..Lazy$LT$spin..mutex..Mutex$LT$kernel..vga_driver..VGATerminal$GT$$GT$$GT$17h2b9405345b86cfd7E>:
   0:	50                   	push   %rax
   1:	48 89 3c 24          	mov    %rdi,(%rsp)
   5:	e8 00 00 00 00       	call   a <_ZN4core3ptr109drop_in_place$LT$lazy_static..lazy..Lazy$LT$spin..mutex..Mutex$LT$kernel..vga_driver..VGATerminal$GT$$GT$$GT$17h2b9405345b86cfd7E+0xa>
   a:	58                   	pop    %rax
   b:	c3                   	ret

Disassembly of section .text._ZN4core3ptr37drop_in_place$LT$core..fmt..Error$GT$17h3c1796d556563e69E:

0000000000000000 <_ZN4core3ptr37drop_in_place$LT$core..fmt..Error$GT$17h3c1796d556563e69E>:
   0:	50                   	push   %rax
   1:	48 89 3c 24          	mov    %rdi,(%rsp)
   5:	58                   	pop    %rax
   6:	c3                   	ret

Disassembly of section .text._ZN4core3ptr52drop_in_place$LT$kernel..vga_driver..VGATerminal$GT$17h510b2822002fa498E:

0000000000000000 <_ZN4core3ptr52drop_in_place$LT$kernel..vga_driver..VGATerminal$GT$17h510b2822002fa498E>:
   0:	50                   	push   %rax
   1:	48 89 3c 24          	mov    %rdi,(%rsp)
   5:	58                   	pop    %rax
   6:	c3                   	ret

Disassembly of section .text._ZN4core3ptr55drop_in_place$LT$$RF$multiboot2_common..MemoryError$GT$17h0add1b9063074703E:

0000000000000000 <_ZN4core3ptr55drop_in_place$LT$$RF$multiboot2_common..MemoryError$GT$17h0add1b9063074703E>:
   0:	50                   	push   %rax
   1:	48 89 3c 24          	mov    %rdi,(%rsp)
   5:	58                   	pop    %rax
   6:	c3                   	ret

Disassembly of section .text._ZN4core3ptr60drop_in_place$LT$multiboot2..boot_information..LoadError$GT$17hea87546c1650894aE:

0000000000000000 <_ZN4core3ptr60drop_in_place$LT$multiboot2..boot_information..LoadError$GT$17hea87546c1650894aE>:
   0:	50                   	push   %rax
   1:	48 89 3c 24          	mov    %rdi,(%rsp)
   5:	58                   	pop    %rax
   6:	c3                   	ret

Disassembly of section .text._ZN4core3ptr83drop_in_place$LT$spin..mutex..MutexGuard$LT$kernel..vga_driver..VGATerminal$GT$$GT$17h68beec8eaf354546E:

0000000000000000 <_ZN4core3ptr83drop_in_place$LT$spin..mutex..MutexGuard$LT$kernel..vga_driver..VGATerminal$GT$$GT$17h68beec8eaf354546E>:
   0:	50                   	push   %rax
   1:	48 89 3c 24          	mov    %rdi,(%rsp)
   5:	e8 00 00 00 00       	call   a <_ZN4core3ptr83drop_in_place$LT$spin..mutex..MutexGuard$LT$kernel..vga_driver..VGATerminal$GT$$GT$17h68beec8eaf354546E+0xa>
   a:	58                   	pop    %rax
   b:	c3                   	ret

Disassembly of section .text._ZN4core3ptr93drop_in_place$LT$spin..mutex..spin..SpinMutexGuard$LT$kernel..vga_driver..VGATerminal$GT$$GT$17h7bbaf180823f45f8E:

0000000000000000 <_ZN4core3ptr93drop_in_place$LT$spin..mutex..spin..SpinMutexGuard$LT$kernel..vga_driver..VGATerminal$GT$$GT$17h7bbaf180823f45f8E>:
   0:	50                   	push   %rax
   1:	48 89 3c 24          	mov    %rdi,(%rsp)
   5:	e8 00 00 00 00       	call   a <_ZN4core3ptr93drop_in_place$LT$spin..mutex..spin..SpinMutexGuard$LT$kernel..vga_driver..VGATerminal$GT$$GT$17h7bbaf180823f45f8E+0xa>
   a:	58                   	pop    %rax
   b:	c3                   	ret

Disassembly of section .text._ZN4core3ptr94drop_in_place$LT$spin..once..Once$LT$x86_64..structures..idt..InterruptDescriptorTable$GT$$GT$17h41e4c51da2c7e286E:

0000000000000000 <_ZN4core3ptr94drop_in_place$LT$spin..once..Once$LT$x86_64..structures..idt..InterruptDescriptorTable$GT$$GT$17h41e4c51da2c7e286E>:
   0:	50                   	push   %rax
   1:	48 89 3c 24          	mov    %rdi,(%rsp)
   5:	e8 00 00 00 00       	call   a <_ZN4core3ptr94drop_in_place$LT$spin..once..Once$LT$x86_64..structures..idt..InterruptDescriptorTable$GT$$GT$17h41e4c51da2c7e286E+0xa>
   a:	58                   	pop    %rax
   b:	c3                   	ret

Disassembly of section .text._ZN71_$LT$spin..once..Once$LT$T$C$R$GT$$u20$as$u20$core..ops..drop..Drop$GT$4drop17hcf195d2f11ab82d8E:

0000000000000000 <_ZN71_$LT$spin..once..Once$LT$T$C$R$GT$$u20$as$u20$core..ops..drop..Drop$GT$4drop17hcf195d2f11ab82d8E>:
   0:	48 83 ec 38          	sub    $0x38,%rsp
   4:	48 89 7c 24 08       	mov    %rdi,0x8(%rsp)
   9:	48 89 7c 24 10       	mov    %rdi,0x10(%rsp)
   e:	48 83 c7 28          	add    $0x28,%rdi
  12:	48 89 7c 24 28       	mov    %rdi,0x28(%rsp)
  17:	e8 00 00 00 00       	call   1c <_ZN71_$LT$spin..once..Once$LT$T$C$R$GT$$u20$as$u20$core..ops..drop..Drop$GT$4drop17hcf195d2f11ab82d8E+0x1c>
  1c:	48 89 c7             	mov    %rax,%rdi
  1f:	48 89 7c 24 30       	mov    %rdi,0x30(%rsp)
  24:	48 8d 35 00 00 00 00 	lea    0x0(%rip),%rsi        # 2b <_ZN71_$LT$spin..once..Once$LT$T$C$R$GT$$u20$as$u20$core..ops..drop..Drop$GT$4drop17hcf195d2f11ab82d8E+0x2b>
  2b:	e8 00 00 00 00       	call   30 <_ZN71_$LT$spin..once..Once$LT$T$C$R$GT$$u20$as$u20$core..ops..drop..Drop$GT$4drop17hcf195d2f11ab82d8E+0x30>
  30:	a8 01                	test   $0x1,%al
  32:	75 05                	jne    39 <_ZN71_$LT$spin..once..Once$LT$T$C$R$GT$$u20$as$u20$core..ops..drop..Drop$GT$4drop17hcf195d2f11ab82d8E+0x39>
  34:	48 83 c4 38          	add    $0x38,%rsp
  38:	c3                   	ret
  39:	48 8b 44 24 08       	mov    0x8(%rsp),%rax
  3e:	48 89 44 24 20       	mov    %rax,0x20(%rsp)
  43:	48 89 44 24 18       	mov    %rax,0x18(%rsp)
  48:	eb ea                	jmp    34 <_ZN71_$LT$spin..once..Once$LT$T$C$R$GT$$u20$as$u20$core..ops..drop..Drop$GT$4drop17hcf195d2f11ab82d8E+0x34>

Disassembly of section .text._ZN71_$LT$spin..once..Once$LT$T$C$R$GT$$u20$as$u20$core..ops..drop..Drop$GT$4drop17hfd183794b38eb4a6E:

0000000000000000 <_ZN71_$LT$spin..once..Once$LT$T$C$R$GT$$u20$as$u20$core..ops..drop..Drop$GT$4drop17hfd183794b38eb4a6E>:
   0:	48 83 ec 38          	sub    $0x38,%rsp
   4:	48 89 7c 24 08       	mov    %rdi,0x8(%rsp)
   9:	48 89 7c 24 10       	mov    %rdi,0x10(%rsp)
   e:	48 81 c7 00 10 00 00 	add    $0x1000,%rdi
  15:	48 89 7c 24 28       	mov    %rdi,0x28(%rsp)
  1a:	e8 00 00 00 00       	call   1f <_ZN71_$LT$spin..once..Once$LT$T$C$R$GT$$u20$as$u20$core..ops..drop..Drop$GT$4drop17hfd183794b38eb4a6E+0x1f>
  1f:	48 89 c7             	mov    %rax,%rdi
  22:	48 89 7c 24 30       	mov    %rdi,0x30(%rsp)
  27:	48 8d 35 00 00 00 00 	lea    0x0(%rip),%rsi        # 2e <_ZN71_$LT$spin..once..Once$LT$T$C$R$GT$$u20$as$u20$core..ops..drop..Drop$GT$4drop17hfd183794b38eb4a6E+0x2e>
  2e:	e8 00 00 00 00       	call   33 <_ZN71_$LT$spin..once..Once$LT$T$C$R$GT$$u20$as$u20$core..ops..drop..Drop$GT$4drop17hfd183794b38eb4a6E+0x33>
  33:	a8 01                	test   $0x1,%al
  35:	75 05                	jne    3c <_ZN71_$LT$spin..once..Once$LT$T$C$R$GT$$u20$as$u20$core..ops..drop..Drop$GT$4drop17hfd183794b38eb4a6E+0x3c>
  37:	48 83 c4 38          	add    $0x38,%rsp
  3b:	c3                   	ret
  3c:	48 8b 44 24 08       	mov    0x8(%rsp),%rax
  41:	48 89 44 24 20       	mov    %rax,0x20(%rsp)
  46:	48 89 44 24 18       	mov    %rax,0x18(%rsp)
  4b:	eb ea                	jmp    37 <_ZN71_$LT$spin..once..Once$LT$T$C$R$GT$$u20$as$u20$core..ops..drop..Drop$GT$4drop17hfd183794b38eb4a6E+0x37>

Disassembly of section .text._ZN84_$LT$spin..mutex..spin..SpinMutexGuard$LT$T$GT$$u20$as$u20$core..ops..drop..Drop$GT$4drop17h3788128c2b0ace2cE:

0000000000000000 <_ZN84_$LT$spin..mutex..spin..SpinMutexGuard$LT$T$GT$$u20$as$u20$core..ops..drop..Drop$GT$4drop17h3788128c2b0ace2cE>:
   0:	48 83 ec 18          	sub    $0x18,%rsp
   4:	48 89 7c 24 10       	mov    %rdi,0x10(%rsp)
   9:	48 8b 3f             	mov    (%rdi),%rdi
   c:	c6 44 24 0f 01       	movb   $0x1,0xf(%rsp)
  11:	31 f6                	xor    %esi,%esi
  13:	0f b6 54 24 0f       	movzbl 0xf(%rsp),%edx
  18:	e8 00 00 00 00       	call   1d <_ZN84_$LT$spin..mutex..spin..SpinMutexGuard$LT$T$GT$$u20$as$u20$core..ops..drop..Drop$GT$4drop17h3788128c2b0ace2cE+0x1d>
  1d:	48 83 c4 18          	add    $0x18,%rsp
  21:	c3                   	ret

kernel-9b89dc178204b098.6fyav9ytl220bprqik55ae1te.rcgu.o:     file format elf64-x86-64


Disassembly of section .text._ZN4core3str8converts23from_utf8_unchecked_mut17he0b8529c4fc698f6E:

0000000000000000 <_ZN4core3str8converts23from_utf8_unchecked_mut17he0b8529c4fc698f6E>:
   0:	48 83 ec 10          	sub    $0x10,%rsp
   4:	48 89 f2             	mov    %rsi,%rdx
   7:	48 89 f8             	mov    %rdi,%rax
   a:	48 89 04 24          	mov    %rax,(%rsp)
   e:	48 89 54 24 08       	mov    %rdx,0x8(%rsp)
  13:	48 83 c4 10          	add    $0x10,%rsp
  17:	c3                   	ret

kernel-9b89dc178204b098.6n2yewmjwzs7pqkfzbpxrv72g.rcgu.o:     file format elf64-x86-64


Disassembly of section .text._ZN6x86_6410structures3idt14Entry$LT$F$GT$14set_handler_fn17h8365587b42d520bcE:

0000000000000000 <_ZN6x86_6410structures3idt14Entry$LT$F$GT$14set_handler_fn17h8365587b42d520bcE>:
   0:	48 83 ec 28          	sub    $0x28,%rsp
   4:	48 89 74 24 08       	mov    %rsi,0x8(%rsp)
   9:	48 89 f8             	mov    %rdi,%rax
   c:	48 8b 7c 24 08       	mov    0x8(%rsp),%rdi
  11:	48 89 44 24 10       	mov    %rax,0x10(%rsp)
  16:	48 89 44 24 18       	mov    %rax,0x18(%rsp)
  1b:	48 89 7c 24 20       	mov    %rdi,0x20(%rsp)
  20:	e8 00 00 00 00       	call   25 <_ZN6x86_6410structures3idt14Entry$LT$F$GT$14set_handler_fn17h8365587b42d520bcE+0x25>
  25:	48 8b 7c 24 10       	mov    0x10(%rsp),%rdi
  2a:	48 89 c6             	mov    %rax,%rsi
  2d:	e8 00 00 00 00       	call   32 <_ZN6x86_6410structures3idt14Entry$LT$F$GT$14set_handler_fn17h8365587b42d520bcE+0x32>
  32:	48 83 c4 28          	add    $0x28,%rsp
  36:	c3                   	ret

Disassembly of section .text._ZN6x86_6410structures3idt14Entry$LT$F$GT$14set_handler_fn17hc2c70c0e8340d7e1E:

0000000000000000 <_ZN6x86_6410structures3idt14Entry$LT$F$GT$14set_handler_fn17hc2c70c0e8340d7e1E>:
   0:	48 83 ec 28          	sub    $0x28,%rsp
   4:	48 89 74 24 08       	mov    %rsi,0x8(%rsp)
   9:	48 89 f8             	mov    %rdi,%rax
   c:	48 8b 7c 24 08       	mov    0x8(%rsp),%rdi
  11:	48 89 44 24 10       	mov    %rax,0x10(%rsp)
  16:	48 89 44 24 18       	mov    %rax,0x18(%rsp)
  1b:	48 89 7c 24 20       	mov    %rdi,0x20(%rsp)
  20:	e8 00 00 00 00       	call   25 <_ZN6x86_6410structures3idt14Entry$LT$F$GT$14set_handler_fn17hc2c70c0e8340d7e1E+0x25>
  25:	48 8b 7c 24 10       	mov    0x10(%rsp),%rdi
  2a:	48 89 c6             	mov    %rax,%rsi
  2d:	e8 00 00 00 00       	call   32 <_ZN6x86_6410structures3idt14Entry$LT$F$GT$14set_handler_fn17hc2c70c0e8340d7e1E+0x32>
  32:	48 83 c4 28          	add    $0x28,%rsp
  36:	c3                   	ret

Disassembly of section .text._ZN6x86_6410structures3idt14Entry$LT$F$GT$16set_handler_addr17h5e4bdbf179f43563E:

0000000000000000 <_ZN6x86_6410structures3idt14Entry$LT$F$GT$16set_handler_addr17h5e4bdbf179f43563E>:
   0:	48 83 ec 28          	sub    $0x28,%rsp
   4:	48 89 34 24          	mov    %rsi,(%rsp)
   8:	48 89 f8             	mov    %rdi,%rax
   b:	48 8b 3c 24          	mov    (%rsp),%rdi
   f:	48 89 44 24 08       	mov    %rax,0x8(%rsp)
  14:	48 89 44 24 10       	mov    %rax,0x10(%rsp)
  19:	48 89 7c 24 18       	mov    %rdi,0x18(%rsp)
  1e:	e8 00 00 00 00       	call   23 <_ZN6x86_6410structures3idt14Entry$LT$F$GT$16set_handler_addr17h5e4bdbf179f43563E+0x23>
  23:	48 8b 7c 24 08       	mov    0x8(%rsp),%rdi
  28:	48 89 44 24 20       	mov    %rax,0x20(%rsp)
  2d:	66 89 c1             	mov    %ax,%cx
  30:	66 89 0f             	mov    %cx,(%rdi)
  33:	48 89 c1             	mov    %rax,%rcx
  36:	48 c1 e9 10          	shr    $0x10,%rcx
  3a:	66 89 4f 06          	mov    %cx,0x6(%rdi)
  3e:	48 c1 e8 20          	shr    $0x20,%rax
  42:	89 47 08             	mov    %eax,0x8(%rdi)
  45:	e8 00 00 00 00       	call   4a <_ZN6x86_6410structures3idt14Entry$LT$F$GT$16set_handler_addr17h5e4bdbf179f43563E+0x4a>
  4a:	48 8b 7c 24 08       	mov    0x8(%rsp),%rdi
  4f:	66 89 47 02          	mov    %ax,0x2(%rdi)
  53:	48 83 c7 04          	add    $0x4,%rdi
  57:	be 01 00 00 00       	mov    $0x1,%esi
  5c:	e8 00 00 00 00       	call   61 <_ZN6x86_6410structures3idt14Entry$LT$F$GT$16set_handler_addr17h5e4bdbf179f43563E+0x61>
  61:	48 8b 44 24 08       	mov    0x8(%rsp),%rax
  66:	48 83 c0 04          	add    $0x4,%rax
  6a:	48 83 c4 28          	add    $0x28,%rsp
  6e:	c3                   	ret

Disassembly of section .text._ZN6x86_6410structures3idt14Entry$LT$F$GT$16set_handler_addr17h97b3f27232dab354E:

0000000000000000 <_ZN6x86_6410structures3idt14Entry$LT$F$GT$16set_handler_addr17h97b3f27232dab354E>:
   0:	48 83 ec 28          	sub    $0x28,%rsp
   4:	48 89 34 24          	mov    %rsi,(%rsp)
   8:	48 89 f8             	mov    %rdi,%rax
   b:	48 8b 3c 24          	mov    (%rsp),%rdi
   f:	48 89 44 24 08       	mov    %rax,0x8(%rsp)
  14:	48 89 44 24 10       	mov    %rax,0x10(%rsp)
  19:	48 89 7c 24 18       	mov    %rdi,0x18(%rsp)
  1e:	e8 00 00 00 00       	call   23 <_ZN6x86_6410structures3idt14Entry$LT$F$GT$16set_handler_addr17h97b3f27232dab354E+0x23>
  23:	48 8b 7c 24 08       	mov    0x8(%rsp),%rdi
  28:	48 89 44 24 20       	mov    %rax,0x20(%rsp)
  2d:	66 89 c1             	mov    %ax,%cx
  30:	66 89 0f             	mov    %cx,(%rdi)
  33:	48 89 c1             	mov    %rax,%rcx
  36:	48 c1 e9 10          	shr    $0x10,%rcx
  3a:	66 89 4f 06          	mov    %cx,0x6(%rdi)
  3e:	48 c1 e8 20          	shr    $0x20,%rax
  42:	89 47 08             	mov    %eax,0x8(%rdi)
  45:	e8 00 00 00 00       	call   4a <_ZN6x86_6410structures3idt14Entry$LT$F$GT$16set_handler_addr17h97b3f27232dab354E+0x4a>
  4a:	48 8b 7c 24 08       	mov    0x8(%rsp),%rdi
  4f:	66 89 47 02          	mov    %ax,0x2(%rdi)
  53:	48 83 c7 04          	add    $0x4,%rdi
  57:	be 01 00 00 00       	mov    $0x1,%esi
  5c:	e8 00 00 00 00       	call   61 <_ZN6x86_6410structures3idt14Entry$LT$F$GT$16set_handler_addr17h97b3f27232dab354E+0x61>
  61:	48 8b 44 24 08       	mov    0x8(%rsp),%rax
  66:	48 83 c0 04          	add    $0x4,%rax
  6a:	48 83 c4 28          	add    $0x28,%rsp
  6e:	c3                   	ret

Disassembly of section .text._ZN6x86_6410structures3idt14Entry$LT$F$GT$7missing17h662ee736ba535660E:

0000000000000000 <_ZN6x86_6410structures3idt14Entry$LT$F$GT$7missing17h662ee736ba535660E>:
   0:	48 83 ec 18          	sub    $0x18,%rsp
   4:	48 89 7c 24 08       	mov    %rdi,0x8(%rsp)
   9:	48 89 7c 24 10       	mov    %rdi,0x10(%rsp)
   e:	e8 00 00 00 00       	call   13 <_ZN6x86_6410structures3idt14Entry$LT$F$GT$7missing17h662ee736ba535660E+0x13>
  13:	48 8b 7c 24 08       	mov    0x8(%rsp),%rdi
  18:	66 89 c1             	mov    %ax,%cx
  1b:	48 8b 44 24 10       	mov    0x10(%rsp),%rax
  20:	66 c7 07 00 00       	movw   $0x0,(%rdi)
  25:	66 c7 47 02 00 00    	movw   $0x0,0x2(%rdi)
  2b:	66 89 4f 04          	mov    %cx,0x4(%rdi)
  2f:	66 c7 47 06 00 00    	movw   $0x0,0x6(%rdi)
  35:	c7 47 08 00 00 00 00 	movl   $0x0,0x8(%rdi)
  3c:	c7 47 0c 00 00 00 00 	movl   $0x0,0xc(%rdi)
  43:	48 83 c4 18          	add    $0x18,%rsp
  47:	c3                   	ret

Disassembly of section .text._ZN6x86_6410structures3idt14Entry$LT$F$GT$7missing17h82f62085e977b3a9E:

0000000000000000 <_ZN6x86_6410structures3idt14Entry$LT$F$GT$7missing17h82f62085e977b3a9E>:
   0:	48 83 ec 18          	sub    $0x18,%rsp
   4:	48 89 7c 24 08       	mov    %rdi,0x8(%rsp)
   9:	48 89 7c 24 10       	mov    %rdi,0x10(%rsp)
   e:	e8 00 00 00 00       	call   13 <_ZN6x86_6410structures3idt14Entry$LT$F$GT$7missing17h82f62085e977b3a9E+0x13>
  13:	48 8b 7c 24 08       	mov    0x8(%rsp),%rdi
  18:	66 89 c1             	mov    %ax,%cx
  1b:	48 8b 44 24 10       	mov    0x10(%rsp),%rax
  20:	66 c7 07 00 00       	movw   $0x0,(%rdi)
  25:	66 c7 47 02 00 00    	movw   $0x0,0x2(%rdi)
  2b:	66 89 4f 04          	mov    %cx,0x4(%rdi)
  2f:	66 c7 47 06 00 00    	movw   $0x0,0x6(%rdi)
  35:	c7 47 08 00 00 00 00 	movl   $0x0,0x8(%rdi)
  3c:	c7 47 0c 00 00 00 00 	movl   $0x0,0xc(%rdi)
  43:	48 83 c4 18          	add    $0x18,%rsp
  47:	c3                   	ret

Disassembly of section .text._ZN6x86_6410structures3idt14Entry$LT$F$GT$7missing17h8c8f0b706e1664e6E:

0000000000000000 <_ZN6x86_6410structures3idt14Entry$LT$F$GT$7missing17h8c8f0b706e1664e6E>:
   0:	48 83 ec 18          	sub    $0x18,%rsp
   4:	48 89 7c 24 08       	mov    %rdi,0x8(%rsp)
   9:	48 89 7c 24 10       	mov    %rdi,0x10(%rsp)
   e:	e8 00 00 00 00       	call   13 <_ZN6x86_6410structures3idt14Entry$LT$F$GT$7missing17h8c8f0b706e1664e6E+0x13>
  13:	48 8b 7c 24 08       	mov    0x8(%rsp),%rdi
  18:	66 89 c1             	mov    %ax,%cx
  1b:	48 8b 44 24 10       	mov    0x10(%rsp),%rax
  20:	66 c7 07 00 00       	movw   $0x0,(%rdi)
  25:	66 c7 47 02 00 00    	movw   $0x0,0x2(%rdi)
  2b:	66 89 4f 04          	mov    %cx,0x4(%rdi)
  2f:	66 c7 47 06 00 00    	movw   $0x0,0x6(%rdi)
  35:	c7 47 08 00 00 00 00 	movl   $0x0,0x8(%rdi)
  3c:	c7 47 0c 00 00 00 00 	movl   $0x0,0xc(%rdi)
  43:	48 83 c4 18          	add    $0x18,%rsp
  47:	c3                   	ret

Disassembly of section .text._ZN6x86_6410structures3idt14Entry$LT$F$GT$7missing17h9b604093d6f2b7efE:

0000000000000000 <_ZN6x86_6410structures3idt14Entry$LT$F$GT$7missing17h9b604093d6f2b7efE>:
   0:	48 83 ec 18          	sub    $0x18,%rsp
   4:	48 89 7c 24 08       	mov    %rdi,0x8(%rsp)
   9:	48 89 7c 24 10       	mov    %rdi,0x10(%rsp)
   e:	e8 00 00 00 00       	call   13 <_ZN6x86_6410structures3idt14Entry$LT$F$GT$7missing17h9b604093d6f2b7efE+0x13>
  13:	48 8b 7c 24 08       	mov    0x8(%rsp),%rdi
  18:	66 89 c1             	mov    %ax,%cx
  1b:	48 8b 44 24 10       	mov    0x10(%rsp),%rax
  20:	66 c7 07 00 00       	movw   $0x0,(%rdi)
  25:	66 c7 47 02 00 00    	movw   $0x0,0x2(%rdi)
  2b:	66 89 4f 04          	mov    %cx,0x4(%rdi)
  2f:	66 c7 47 06 00 00    	movw   $0x0,0x6(%rdi)
  35:	c7 47 08 00 00 00 00 	movl   $0x0,0x8(%rdi)
  3c:	c7 47 0c 00 00 00 00 	movl   $0x0,0xc(%rdi)
  43:	48 83 c4 18          	add    $0x18,%rsp
  47:	c3                   	ret

Disassembly of section .text._ZN6x86_6410structures3idt14Entry$LT$F$GT$7missing17hcdd0ef95fb911fc4E:

0000000000000000 <_ZN6x86_6410structures3idt14Entry$LT$F$GT$7missing17hcdd0ef95fb911fc4E>:
   0:	48 83 ec 18          	sub    $0x18,%rsp
   4:	48 89 7c 24 08       	mov    %rdi,0x8(%rsp)
   9:	48 89 7c 24 10       	mov    %rdi,0x10(%rsp)
   e:	e8 00 00 00 00       	call   13 <_ZN6x86_6410structures3idt14Entry$LT$F$GT$7missing17hcdd0ef95fb911fc4E+0x13>
  13:	48 8b 7c 24 08       	mov    0x8(%rsp),%rdi
  18:	66 89 c1             	mov    %ax,%cx
  1b:	48 8b 44 24 10       	mov    0x10(%rsp),%rax
  20:	66 c7 07 00 00       	movw   $0x0,(%rdi)
  25:	66 c7 47 02 00 00    	movw   $0x0,0x2(%rdi)
  2b:	66 89 4f 04          	mov    %cx,0x4(%rdi)
  2f:	66 c7 47 06 00 00    	movw   $0x0,0x6(%rdi)
  35:	c7 47 08 00 00 00 00 	movl   $0x0,0x8(%rdi)
  3c:	c7 47 0c 00 00 00 00 	movl   $0x0,0xc(%rdi)
  43:	48 83 c4 18          	add    $0x18,%rsp
  47:	c3                   	ret

kernel-9b89dc178204b098.6vj9xzznkzx4jiuq4o406843a.rcgu.o:     file format elf64-x86-64


Disassembly of section .text._ZN4core3mem6forget17heb6fe521bb6d00ceE:

0000000000000000 <_ZN4core3mem6forget17heb6fe521bb6d00ceE>:
   0:	48 83 ec 10          	sub    $0x10,%rsp
   4:	48 89 3c 24          	mov    %rdi,(%rsp)
   8:	48 89 7c 24 08       	mov    %rdi,0x8(%rsp)
   d:	48 83 c4 10          	add    $0x10,%rsp
  11:	c3                   	ret

kernel-9b89dc178204b098.6w3zhqga4tohefhikfpp21q5y.rcgu.o:     file format elf64-x86-64


Disassembly of section .text._ZN4core6result19Result$LT$T$C$E$GT$5is_ok17hc0307f651701bf8eE:

0000000000000000 <_ZN4core6result19Result$LT$T$C$E$GT$5is_ok17hc0307f651701bf8eE>:
   0:	48 83 ec 10          	sub    $0x10,%rsp
   4:	48 89 7c 24 08       	mov    %rdi,0x8(%rsp)
   9:	8a 07                	mov    (%rdi),%al
   b:	24 01                	and    $0x1,%al
   d:	0f b6 c0             	movzbl %al,%eax
  10:	48 83 f8 00          	cmp    $0x0,%rax
  14:	75 07                	jne    1d <_ZN4core6result19Result$LT$T$C$E$GT$5is_ok17hc0307f651701bf8eE+0x1d>
  16:	c6 44 24 07 01       	movb   $0x1,0x7(%rsp)
  1b:	eb 05                	jmp    22 <_ZN4core6result19Result$LT$T$C$E$GT$5is_ok17hc0307f651701bf8eE+0x22>
  1d:	c6 44 24 07 00       	movb   $0x0,0x7(%rsp)
  22:	8a 44 24 07          	mov    0x7(%rsp),%al
  26:	24 01                	and    $0x1,%al
  28:	48 83 c4 10          	add    $0x10,%rsp
  2c:	c3                   	ret

Disassembly of section .text._ZN4core6result19Result$LT$T$C$E$GT$6expect17ha4c67049d065278fE:

0000000000000000 <_ZN4core6result19Result$LT$T$C$E$GT$6expect17ha4c67049d065278fE>:
   0:	48 83 ec 48          	sub    $0x48,%rsp
   4:	48 89 0c 24          	mov    %rcx,(%rsp)
   8:	48 89 54 24 08       	mov    %rdx,0x8(%rsp)
   d:	48 89 74 24 10       	mov    %rsi,0x10(%rsp)
  12:	48 89 7c 24 18       	mov    %rdi,0x18(%rsp)
  17:	48 89 74 24 28       	mov    %rsi,0x28(%rsp)
  1c:	48 89 54 24 30       	mov    %rdx,0x30(%rsp)
  21:	48 8b 17             	mov    (%rdi),%rdx
  24:	31 c0                	xor    %eax,%eax
  26:	b9 01 00 00 00       	mov    $0x1,%ecx
  2b:	48 83 fa 00          	cmp    $0x0,%rdx
  2f:	48 0f 44 c1          	cmove  %rcx,%rax
  33:	48 83 f8 00          	cmp    $0x0,%rax
  37:	75 1b                	jne    54 <_ZN4core6result19Result$LT$T$C$E$GT$6expect17ha4c67049d065278fE+0x54>
  39:	48 8b 4c 24 18       	mov    0x18(%rsp),%rcx
  3e:	48 8b 01             	mov    (%rcx),%rax
  41:	48 8b 51 08          	mov    0x8(%rcx),%rdx
  45:	48 89 44 24 38       	mov    %rax,0x38(%rsp)
  4a:	48 89 54 24 40       	mov    %rdx,0x40(%rsp)
  4f:	48 83 c4 48          	add    $0x48,%rsp
  53:	c3                   	ret
  54:	4c 8b 04 24          	mov    (%rsp),%r8
  58:	48 8b 74 24 08       	mov    0x8(%rsp),%rsi
  5d:	48 8b 7c 24 10       	mov    0x10(%rsp),%rdi
  62:	48 8b 44 24 18       	mov    0x18(%rsp),%rax
  67:	8a 40 08             	mov    0x8(%rax),%al
  6a:	88 44 24 27          	mov    %al,0x27(%rsp)
  6e:	48 8d 0d 00 00 00 00 	lea    0x0(%rip),%rcx        # 75 <_ZN4core6result19Result$LT$T$C$E$GT$6expect17ha4c67049d065278fE+0x75>
  75:	48 8d 54 24 27       	lea    0x27(%rsp),%rdx
  7a:	e8 00 00 00 00       	call   7f <_ZN4core6result19Result$LT$T$C$E$GT$6expect17ha4c67049d065278fE+0x7f>

Disassembly of section .text._ZN4core6result19Result$LT$T$C$E$GT$6is_err17h990a622f2e6438ccE:

0000000000000000 <_ZN4core6result19Result$LT$T$C$E$GT$6is_err17h990a622f2e6438ccE>:
   0:	50                   	push   %rax
   1:	48 89 3c 24          	mov    %rdi,(%rsp)
   5:	e8 00 00 00 00       	call   a <_ZN4core6result19Result$LT$T$C$E$GT$6is_err17h990a622f2e6438ccE+0xa>
   a:	34 ff                	xor    $0xff,%al
   c:	24 01                	and    $0x1,%al
   e:	59                   	pop    %rcx
   f:	c3                   	ret

kernel-9b89dc178204b098.79bu25xljnk5hzj2blpl7jaeh.rcgu.o:     file format elf64-x86-64


Disassembly of section .text._ZN4core6option15Option$LT$T$GT$6expect17h283479753dad8473E:

0000000000000000 <_ZN4core6option15Option$LT$T$GT$6expect17h283479753dad8473E>:
   0:	48 83 ec 48          	sub    $0x48,%rsp
   4:	4c 89 04 24          	mov    %r8,(%rsp)
   8:	48 89 4c 24 08       	mov    %rcx,0x8(%rsp)
   d:	48 89 54 24 10       	mov    %rdx,0x10(%rsp)
  12:	48 89 7c 24 18       	mov    %rdi,0x18(%rsp)
  17:	48 89 74 24 20       	mov    %rsi,0x20(%rsp)
  1c:	48 89 54 24 28       	mov    %rdx,0x28(%rsp)
  21:	48 89 4c 24 30       	mov    %rcx,0x30(%rsp)
  26:	48 8b 54 24 18       	mov    0x18(%rsp),%rdx
  2b:	b8 01 00 00 00       	mov    $0x1,%eax
  30:	31 c9                	xor    %ecx,%ecx
  32:	48 83 fa 00          	cmp    $0x0,%rdx
  36:	48 0f 44 c1          	cmove  %rcx,%rax
  3a:	48 83 f8 00          	cmp    $0x0,%rax
  3e:	75 13                	jne    53 <_ZN4core6option15Option$LT$T$GT$6expect17h283479753dad8473E+0x53>
  40:	48 8b 14 24          	mov    (%rsp),%rdx
  44:	48 8b 74 24 08       	mov    0x8(%rsp),%rsi
  49:	48 8b 7c 24 10       	mov    0x10(%rsp),%rdi
  4e:	e8 00 00 00 00       	call   53 <_ZN4core6option15Option$LT$T$GT$6expect17h283479753dad8473E+0x53>
  53:	48 8b 44 24 18       	mov    0x18(%rsp),%rax
  58:	48 8b 54 24 20       	mov    0x20(%rsp),%rdx
  5d:	48 89 44 24 38       	mov    %rax,0x38(%rsp)
  62:	48 89 54 24 40       	mov    %rdx,0x40(%rsp)
  67:	48 83 c4 48          	add    $0x48,%rsp
  6b:	c3                   	ret

kernel-9b89dc178204b098.7smx2owdcu35rirxmc2ok7cyk.rcgu.o:     file format elf64-x86-64


Disassembly of section .text._ZN4core9ub_checks17check_language_ub17h6540ea2de8cd6477E:

0000000000000000 <_ZN4core9ub_checks17check_language_ub17h6540ea2de8cd6477E>:
   0:	50                   	push   %rax
   1:	e8 00 00 00 00       	call   6 <_ZN4core9ub_checks17check_language_ub17h6540ea2de8cd6477E+0x6>
   6:	24 01                	and    $0x1,%al
   8:	88 44 24 07          	mov    %al,0x7(%rsp)
   c:	8a 44 24 07          	mov    0x7(%rsp),%al
  10:	24 01                	and    $0x1,%al
  12:	59                   	pop    %rcx
  13:	c3                   	ret

Disassembly of section .text._ZN4core9ub_checks17check_language_ub7runtime17h8297f2e25f5390e7E:

0000000000000000 <_ZN4core9ub_checks17check_language_ub7runtime17h8297f2e25f5390e7E>:
   0:	b0 01                	mov    $0x1,%al
   2:	24 01                	and    $0x1,%al
   4:	c3                   	ret

Disassembly of section .text._ZN4core9ub_checks23is_aligned_and_not_null17h47fd35249bb0654aE:

0000000000000000 <_ZN4core9ub_checks23is_aligned_and_not_null17h47fd35249bb0654aE>:
   0:	48 83 ec 28          	sub    $0x28,%rsp
   4:	48 89 34 24          	mov    %rsi,(%rsp)
   8:	48 89 7c 24 08       	mov    %rdi,0x8(%rsp)
   d:	48 89 7c 24 18       	mov    %rdi,0x18(%rsp)
  12:	48 89 74 24 20       	mov    %rsi,0x20(%rsp)
  17:	e8 00 00 00 00       	call   1c <_ZN4core9ub_checks23is_aligned_and_not_null17h47fd35249bb0654aE+0x1c>
  1c:	a8 01                	test   $0x1,%al
  1e:	75 16                	jne    36 <_ZN4core9ub_checks23is_aligned_and_not_null17h47fd35249bb0654aE+0x36>
  20:	48 8b 34 24          	mov    (%rsp),%rsi
  24:	48 8b 7c 24 08       	mov    0x8(%rsp),%rdi
  29:	e8 00 00 00 00       	call   2e <_ZN4core9ub_checks23is_aligned_and_not_null17h47fd35249bb0654aE+0x2e>
  2e:	24 01                	and    $0x1,%al
  30:	88 44 24 17          	mov    %al,0x17(%rsp)
  34:	eb 05                	jmp    3b <_ZN4core9ub_checks23is_aligned_and_not_null17h47fd35249bb0654aE+0x3b>
  36:	c6 44 24 17 00       	movb   $0x0,0x17(%rsp)
  3b:	8a 44 24 17          	mov    0x17(%rsp),%al
  3f:	24 01                	and    $0x1,%al
  41:	48 83 c4 28          	add    $0x28,%rsp
  45:	c3                   	ret

kernel-9b89dc178204b098.8bduh8pcwrzj1emt62len47fc.rcgu.o:     file format elf64-x86-64


Disassembly of section .text._ZN6x86_644addr8VirtAddr12new_truncate17ha2df2a0494909e17E:

0000000000000000 <_ZN6x86_644addr8VirtAddr12new_truncate17ha2df2a0494909e17E>:
   0:	50                   	push   %rax
   1:	48 89 f8             	mov    %rdi,%rax
   4:	48 89 04 24          	mov    %rax,(%rsp)
   8:	48 c1 e0 10          	shl    $0x10,%rax
   c:	48 c1 f8 10          	sar    $0x10,%rax
  10:	59                   	pop    %rcx
  11:	c3                   	ret

Disassembly of section .text._ZN6x86_644addr8VirtAddr3new17h0fffa2417f135157E:

0000000000000000 <_ZN6x86_644addr8VirtAddr3new17h0fffa2417f135157E>:
   0:	50                   	push   %rax
   1:	48 89 3c 24          	mov    %rdi,(%rsp)
   5:	e8 00 00 00 00       	call   a <_ZN6x86_644addr8VirtAddr3new17h0fffa2417f135157E+0xa>
   a:	48 89 c7             	mov    %rax,%rdi
   d:	48 89 d6             	mov    %rdx,%rsi
  10:	48 8d 15 00 00 00 00 	lea    0x0(%rip),%rdx        # 17 <_ZN6x86_644addr8VirtAddr3new17h0fffa2417f135157E+0x17>
  17:	b9 4a 00 00 00       	mov    $0x4a,%ecx
  1c:	4c 8d 05 00 00 00 00 	lea    0x0(%rip),%r8        # 23 <_ZN6x86_644addr8VirtAddr3new17h0fffa2417f135157E+0x23>
  23:	e8 00 00 00 00       	call   28 <_ZN6x86_644addr8VirtAddr3new17h0fffa2417f135157E+0x28>
  28:	59                   	pop    %rcx
  29:	c3                   	ret

Disassembly of section .text._ZN6x86_644addr8VirtAddr6as_u6417hf4dd39c38ac8348eE:

0000000000000000 <_ZN6x86_644addr8VirtAddr6as_u6417hf4dd39c38ac8348eE>:
   0:	50                   	push   %rax
   1:	48 89 f8             	mov    %rdi,%rax
   4:	48 89 04 24          	mov    %rax,(%rsp)
   8:	59                   	pop    %rcx
   9:	c3                   	ret

Disassembly of section .text._ZN6x86_644addr8VirtAddr7try_new17h3798a2cea417dcd2E:

0000000000000000 <_ZN6x86_644addr8VirtAddr7try_new17h3798a2cea417dcd2E>:
   0:	48 83 ec 28          	sub    $0x28,%rsp
   4:	48 89 7c 24 10       	mov    %rdi,0x10(%rsp)
   9:	48 8d 0d 00 00 00 00 	lea    0x0(%rip),%rcx        # 10 <_ZN6x86_644addr8VirtAddr7try_new17h3798a2cea417dcd2E+0x10>
  10:	48 8d 7c 24 10       	lea    0x10(%rsp),%rdi
  15:	be 2f 00 00 00       	mov    $0x2f,%esi
  1a:	ba 40 00 00 00       	mov    $0x40,%edx
  1f:	e8 00 00 00 00       	call   24 <_ZN6x86_644addr8VirtAddr7try_new17h3798a2cea417dcd2E+0x24>
  24:	48 89 c1             	mov    %rax,%rcx
  27:	48 89 4c 24 08       	mov    %rcx,0x8(%rsp)
  2c:	48 85 c0             	test   %rax,%rax
  2f:	74 33                	je     64 <_ZN6x86_644addr8VirtAddr7try_new17h3798a2cea417dcd2E+0x64>
  31:	eb 00                	jmp    33 <_ZN6x86_644addr8VirtAddr7try_new17h3798a2cea417dcd2E+0x33>
  33:	48 8b 44 24 08       	mov    0x8(%rsp),%rax
  38:	48 83 e8 01          	sub    $0x1,%rax
  3c:	74 3b                	je     79 <_ZN6x86_644addr8VirtAddr7try_new17h3798a2cea417dcd2E+0x79>
  3e:	eb 00                	jmp    40 <_ZN6x86_644addr8VirtAddr7try_new17h3798a2cea417dcd2E+0x40>
  40:	48 8b 44 24 08       	mov    0x8(%rsp),%rax
  45:	48 2d ff ff 01 00    	sub    $0x1ffff,%rax
  4b:	74 17                	je     64 <_ZN6x86_644addr8VirtAddr7try_new17h3798a2cea417dcd2E+0x64>
  4d:	eb 00                	jmp    4f <_ZN6x86_644addr8VirtAddr7try_new17h3798a2cea417dcd2E+0x4f>
  4f:	48 8b 44 24 10       	mov    0x10(%rsp),%rax
  54:	48 89 44 24 20       	mov    %rax,0x20(%rsp)
  59:	48 c7 44 24 18 01 00 	movq   $0x1,0x18(%rsp)
  60:	00 00 
  62:	eb 2d                	jmp    91 <_ZN6x86_644addr8VirtAddr7try_new17h3798a2cea417dcd2E+0x91>
  64:	48 8b 44 24 10       	mov    0x10(%rsp),%rax
  69:	48 89 44 24 20       	mov    %rax,0x20(%rsp)
  6e:	48 c7 44 24 18 00 00 	movq   $0x0,0x18(%rsp)
  75:	00 00 
  77:	eb 18                	jmp    91 <_ZN6x86_644addr8VirtAddr7try_new17h3798a2cea417dcd2E+0x91>
  79:	48 8b 7c 24 10       	mov    0x10(%rsp),%rdi
  7e:	e8 00 00 00 00       	call   83 <_ZN6x86_644addr8VirtAddr7try_new17h3798a2cea417dcd2E+0x83>
  83:	48 89 44 24 20       	mov    %rax,0x20(%rsp)
  88:	48 c7 44 24 18 00 00 	movq   $0x0,0x18(%rsp)
  8f:	00 00 
  91:	48 8b 44 24 18       	mov    0x18(%rsp),%rax
  96:	48 8b 54 24 20       	mov    0x20(%rsp),%rdx
  9b:	48 83 c4 28          	add    $0x28,%rsp
  9f:	c3                   	ret

kernel-9b89dc178204b098.8qmwjodh7zbrp0750kuii9gsg.rcgu.o:     file format elf64-x86-64


Disassembly of section .text._ZN4core3fmt9Arguments16new_v1_formatted17he3e26339d3d04a58E:

0000000000000000 <_ZN4core3fmt9Arguments16new_v1_formatted17he3e26339d3d04a58E>:
   0:	48 83 ec 50          	sub    $0x50,%rsp
   4:	4d 89 ca             	mov    %r9,%r10
   7:	48 89 f8             	mov    %rdi,%rax
   a:	4c 8b 4c 24 58       	mov    0x58(%rsp),%r9
   f:	48 89 74 24 18       	mov    %rsi,0x18(%rsp)
  14:	48 89 54 24 20       	mov    %rdx,0x20(%rsp)
  19:	48 89 4c 24 28       	mov    %rcx,0x28(%rsp)
  1e:	4c 89 44 24 30       	mov    %r8,0x30(%rsp)
  23:	4c 89 54 24 38       	mov    %r10,0x38(%rsp)
  28:	4c 89 4c 24 40       	mov    %r9,0x40(%rsp)
  2d:	4c 89 54 24 08       	mov    %r10,0x8(%rsp)
  32:	4c 89 4c 24 10       	mov    %r9,0x10(%rsp)
  37:	48 89 37             	mov    %rsi,(%rdi)
  3a:	48 89 57 08          	mov    %rdx,0x8(%rdi)
  3e:	48 8b 74 24 08       	mov    0x8(%rsp),%rsi
  43:	48 8b 54 24 10       	mov    0x10(%rsp),%rdx
  48:	48 89 77 20          	mov    %rsi,0x20(%rdi)
  4c:	48 89 57 28          	mov    %rdx,0x28(%rdi)
  50:	48 89 4f 10          	mov    %rcx,0x10(%rdi)
  54:	4c 89 47 18          	mov    %r8,0x18(%rdi)
  58:	48 83 c4 50          	add    $0x50,%rsp
  5c:	c3                   	ret

Disassembly of section .text._ZN4core3fmt9Arguments23as_statically_known_str17h1b0e45f63fac6a5fE:

0000000000000000 <_ZN4core3fmt9Arguments23as_statically_known_str17h1b0e45f63fac6a5fE>:
   0:	48 83 ec 38          	sub    $0x38,%rsp
   4:	48 89 7c 24 28       	mov    %rdi,0x28(%rsp)
   9:	e8 00 00 00 00       	call   e <_ZN4core3fmt9Arguments23as_statically_known_str17h1b0e45f63fac6a5fE+0xe>
   e:	48 89 44 24 18       	mov    %rax,0x18(%rsp)
  13:	48 89 54 24 20       	mov    %rdx,0x20(%rsp)
  18:	48 8d 7c 24 18       	lea    0x18(%rsp),%rdi
  1d:	e8 00 00 00 00       	call   22 <_ZN4core3fmt9Arguments23as_statically_known_str17h1b0e45f63fac6a5fE+0x22>
  22:	c6 44 24 37 00       	movb   $0x0,0x37(%rsp)
  27:	f6 44 24 37 01       	testb  $0x1,0x37(%rsp)
  2c:	75 0b                	jne    39 <_ZN4core3fmt9Arguments23as_statically_known_str17h1b0e45f63fac6a5fE+0x39>
  2e:	48 c7 44 24 08 00 00 	movq   $0x0,0x8(%rsp)
  35:	00 00 
  37:	eb 14                	jmp    4d <_ZN4core3fmt9Arguments23as_statically_known_str17h1b0e45f63fac6a5fE+0x4d>
  39:	48 8b 4c 24 18       	mov    0x18(%rsp),%rcx
  3e:	48 8b 44 24 20       	mov    0x20(%rsp),%rax
  43:	48 89 4c 24 08       	mov    %rcx,0x8(%rsp)
  48:	48 89 44 24 10       	mov    %rax,0x10(%rsp)
  4d:	48 8b 44 24 08       	mov    0x8(%rsp),%rax
  52:	48 8b 54 24 10       	mov    0x10(%rsp),%rdx
  57:	48 83 c4 38          	add    $0x38,%rsp
  5b:	c3                   	ret

Disassembly of section .text._ZN4core3fmt9Arguments6as_str17h0c6dd7bcd97ead5bE:

0000000000000000 <_ZN4core3fmt9Arguments6as_str17h0c6dd7bcd97ead5bE>:
   0:	48 83 ec 40          	sub    $0x40,%rsp
   4:	48 89 7c 24 30       	mov    %rdi,0x30(%rsp)
   9:	48 8b 37             	mov    (%rdi),%rsi
   c:	48 8b 57 08          	mov    0x8(%rdi),%rdx
  10:	48 8b 4f 10          	mov    0x10(%rdi),%rcx
  14:	48 8b 47 18          	mov    0x18(%rdi),%rax
  18:	48 89 74 24 10       	mov    %rsi,0x10(%rsp)
  1d:	48 89 54 24 18       	mov    %rdx,0x18(%rsp)
  22:	48 89 4c 24 20       	mov    %rcx,0x20(%rsp)
  27:	48 89 44 24 28       	mov    %rax,0x28(%rsp)
  2c:	48 83 7c 24 18 00    	cmpq   $0x0,0x18(%rsp)
  32:	75 0a                	jne    3e <_ZN4core3fmt9Arguments6as_str17h0c6dd7bcd97ead5bE+0x3e>
  34:	48 83 7c 24 28 00    	cmpq   $0x0,0x28(%rsp)
  3a:	74 0c                	je     48 <_ZN4core3fmt9Arguments6as_str17h0c6dd7bcd97ead5bE+0x48>
  3c:	eb 1e                	jmp    5c <_ZN4core3fmt9Arguments6as_str17h0c6dd7bcd97ead5bE+0x5c>
  3e:	48 83 7c 24 18 01    	cmpq   $0x1,0x18(%rsp)
  44:	74 2c                	je     72 <_ZN4core3fmt9Arguments6as_str17h0c6dd7bcd97ead5bE+0x72>
  46:	eb 14                	jmp    5c <_ZN4core3fmt9Arguments6as_str17h0c6dd7bcd97ead5bE+0x5c>
  48:	b8 01 00 00 00       	mov    $0x1,%eax
  4d:	48 89 04 24          	mov    %rax,(%rsp)
  51:	48 c7 44 24 08 00 00 	movq   $0x0,0x8(%rsp)
  58:	00 00 
  5a:	eb 08                	jmp    64 <_ZN4core3fmt9Arguments6as_str17h0c6dd7bcd97ead5bE+0x64>
  5c:	48 c7 04 24 00 00 00 	movq   $0x0,(%rsp)
  63:	00 
  64:	48 8b 04 24          	mov    (%rsp),%rax
  68:	48 8b 54 24 08       	mov    0x8(%rsp),%rdx
  6d:	48 83 c4 40          	add    $0x40,%rsp
  71:	c3                   	ret
  72:	48 83 7c 24 28 00    	cmpq   $0x0,0x28(%rsp)
  78:	75 e2                	jne    5c <_ZN4core3fmt9Arguments6as_str17h0c6dd7bcd97ead5bE+0x5c>
  7a:	48 8b 44 24 10       	mov    0x10(%rsp),%rax
  7f:	48 89 44 24 38       	mov    %rax,0x38(%rsp)
  84:	48 8b 08             	mov    (%rax),%rcx
  87:	48 8b 40 08          	mov    0x8(%rax),%rax
  8b:	48 89 0c 24          	mov    %rcx,(%rsp)
  8f:	48 89 44 24 08       	mov    %rax,0x8(%rsp)
  94:	eb ce                	jmp    64 <_ZN4core3fmt9Arguments6as_str17h0c6dd7bcd97ead5bE+0x64>

Disassembly of section .text._ZN53_$LT$core..fmt..Error$u20$as$u20$core..fmt..Debug$GT$3fmt17h8def3dad0dda4114E:

0000000000000000 <_ZN53_$LT$core..fmt..Error$u20$as$u20$core..fmt..Debug$GT$3fmt17h8def3dad0dda4114E>:
   0:	48 83 ec 18          	sub    $0x18,%rsp
   4:	48 89 34 24          	mov    %rsi,(%rsp)
   8:	48 89 f8             	mov    %rdi,%rax
   b:	48 8b 3c 24          	mov    (%rsp),%rdi
   f:	48 89 44 24 08       	mov    %rax,0x8(%rsp)
  14:	48 89 7c 24 10       	mov    %rdi,0x10(%rsp)
  19:	48 8d 35 00 00 00 00 	lea    0x0(%rip),%rsi        # 20 <_ZN53_$LT$core..fmt..Error$u20$as$u20$core..fmt..Debug$GT$3fmt17h8def3dad0dda4114E+0x20>
  20:	ba 05 00 00 00       	mov    $0x5,%edx
  25:	e8 00 00 00 00       	call   2a <_ZN53_$LT$core..fmt..Error$u20$as$u20$core..fmt..Debug$GT$3fmt17h8def3dad0dda4114E+0x2a>
  2a:	24 01                	and    $0x1,%al
  2c:	48 83 c4 18          	add    $0x18,%rsp
  30:	c3                   	ret

kernel-9b89dc178204b098.8vuumyfv69egvx431gaxrgcks.rcgu.o:     file format elf64-x86-64


Disassembly of section .text.rust_begin_unwind:

0000000000000000 <rust_begin_unwind>:
   0:	50                   	push   %rax
   1:	48 89 3c 24          	mov    %rdi,(%rsp)
   5:	eb fe                	jmp    5 <rust_begin_unwind+0x5>

Disassembly of section .text.kernel_main:

0000000000000000 <kernel_main>:
   0:	48 81 ec b8 01 00 00 	sub    $0x1b8,%rsp
   7:	48 89 7c 24 08       	mov    %rdi,0x8(%rsp)
   c:	48 89 bc 24 48 01 00 	mov    %rdi,0x148(%rsp)
  13:	00 
  14:	e8 00 00 00 00       	call   19 <kernel_main+0x19>
  19:	e8 00 00 00 00       	call   1e <kernel_main+0x1e>
  1e:	48 8d 7c 24 20       	lea    0x20(%rsp),%rdi
  23:	48 8d 35 00 00 00 00 	lea    0x0(%rip),%rsi        # 2a <kernel_main+0x2a>
  2a:	48 8d 54 24 50       	lea    0x50(%rsp),%rdx
  2f:	e8 00 00 00 00       	call   34 <kernel_main+0x34>
  34:	48 8d 7c 24 20       	lea    0x20(%rsp),%rdi
  39:	e8 00 00 00 00       	call   3e <kernel_main+0x3e>
  3e:	48 8b 74 24 08       	mov    0x8(%rsp),%rsi
  43:	48 8d 7c 24 68       	lea    0x68(%rsp),%rdi
  48:	e8 00 00 00 00       	call   4d <kernel_main+0x4d>
  4d:	48 8d 7c 24 68       	lea    0x68(%rsp),%rdi
  52:	48 8d 35 00 00 00 00 	lea    0x0(%rip),%rsi        # 59 <kernel_main+0x59>
  59:	ba 15 00 00 00       	mov    $0x15,%edx
  5e:	48 8d 0d 00 00 00 00 	lea    0x0(%rip),%rcx        # 65 <kernel_main+0x65>
  65:	e8 00 00 00 00       	call   6a <kernel_main+0x6a>
  6a:	48 89 44 24 58       	mov    %rax,0x58(%rsp)
  6f:	48 89 54 24 60       	mov    %rdx,0x60(%rsp)
  74:	48 8d 7c 24 58       	lea    0x58(%rsp),%rdi
  79:	e8 00 00 00 00       	call   7e <kernel_main+0x7e>
  7e:	48 89 c7             	mov    %rax,%rdi
  81:	48 89 d6             	mov    %rdx,%rsi
  84:	48 8d 15 00 00 00 00 	lea    0x0(%rip),%rdx        # 8b <kernel_main+0x8b>
  8b:	b9 17 00 00 00       	mov    $0x17,%ecx
  90:	4c 8d 05 00 00 00 00 	lea    0x0(%rip),%r8        # 97 <kernel_main+0x97>
  97:	e8 00 00 00 00       	call   9c <kernel_main+0x9c>
  9c:	48 89 44 24 10       	mov    %rax,0x10(%rsp)
  a1:	48 89 54 24 18       	mov    %rdx,0x18(%rsp)
  a6:	48 89 84 24 50 01 00 	mov    %rax,0x150(%rsp)
  ad:	00 
  ae:	48 89 94 24 58 01 00 	mov    %rdx,0x158(%rsp)
  b5:	00 
  b6:	48 8d 7c 24 78       	lea    0x78(%rsp),%rdi
  bb:	48 8d 35 00 00 00 00 	lea    0x0(%rip),%rsi        # c2 <kernel_main+0xc2>
  c2:	48 8d 94 24 a8 00 00 	lea    0xa8(%rsp),%rdx
  c9:	00 
  ca:	e8 00 00 00 00       	call   cf <kernel_main+0xcf>
  cf:	48 8d 7c 24 78       	lea    0x78(%rsp),%rdi
  d4:	e8 00 00 00 00       	call   d9 <kernel_main+0xd9>
  d9:	48 8b 7c 24 10       	mov    0x10(%rsp),%rdi
  de:	48 8b 74 24 18       	mov    0x18(%rsp),%rsi
  e3:	e8 00 00 00 00       	call   e8 <kernel_main+0xe8>
  e8:	48 89 c7             	mov    %rax,%rdi
  eb:	48 89 d6             	mov    %rdx,%rsi
  ee:	e8 00 00 00 00       	call   f3 <kernel_main+0xf3>
  f3:	48 89 84 24 b0 00 00 	mov    %rax,0xb0(%rsp)
  fa:	00 
  fb:	48 89 94 24 b8 00 00 	mov    %rdx,0xb8(%rsp)
 102:	00 
 103:	48 8d bc 24 b0 00 00 	lea    0xb0(%rsp),%rdi
 10a:	00 
 10b:	e8 00 00 00 00       	call   110 <kernel_main+0x110>
 110:	48 89 84 24 c0 00 00 	mov    %rax,0xc0(%rsp)
 117:	00 
 118:	48 8b 94 24 c0 00 00 	mov    0xc0(%rsp),%rdx
 11f:	00 
 120:	b8 01 00 00 00       	mov    $0x1,%eax
 125:	31 c9                	xor    %ecx,%ecx
 127:	48 83 fa 00          	cmp    $0x0,%rdx
 12b:	48 0f 44 c1          	cmove  %rcx,%rax
 12f:	48 83 f8 00          	cmp    $0x0,%rax
 133:	75 08                	jne    13d <kernel_main+0x13d>
 135:	48 81 c4 b8 01 00 00 	add    $0x1b8,%rsp
 13c:	c3                   	ret
 13d:	48 8b bc 24 c0 00 00 	mov    0xc0(%rsp),%rdi
 144:	00 
 145:	48 89 3c 24          	mov    %rdi,(%rsp)
 149:	48 89 bc 24 60 01 00 	mov    %rdi,0x160(%rsp)
 150:	00 
 151:	e8 00 00 00 00       	call   156 <kernel_main+0x156>
 156:	48 89 84 24 28 01 00 	mov    %rax,0x128(%rsp)
 15d:	00 
 15e:	48 8d 84 24 28 01 00 	lea    0x128(%rsp),%rax
 165:	00 
 166:	48 89 84 24 70 01 00 	mov    %rax,0x170(%rsp)
 16d:	00 
 16e:	48 8d 84 24 28 01 00 	lea    0x128(%rsp),%rax
 175:	00 
 176:	48 89 84 24 88 01 00 	mov    %rax,0x188(%rsp)
 17d:	00 
 17e:	48 8b 05 00 00 00 00 	mov    0x0(%rip),%rax        # 185 <kernel_main+0x185>
 185:	48 89 84 24 90 01 00 	mov    %rax,0x190(%rsp)
 18c:	00 
 18d:	48 8d bc 24 28 01 00 	lea    0x128(%rsp),%rdi
 194:	00 
 195:	e8 00 00 00 00       	call   19a <kernel_main+0x19a>
 19a:	48 89 c7             	mov    %rax,%rdi
 19d:	e8 00 00 00 00       	call   1a2 <kernel_main+0x1a2>
 1a2:	48 8b 3c 24          	mov    (%rsp),%rdi
 1a6:	48 89 84 24 78 01 00 	mov    %rax,0x178(%rsp)
 1ad:	00 
 1ae:	48 8b 05 00 00 00 00 	mov    0x0(%rip),%rax        # 1b5 <kernel_main+0x1b5>
 1b5:	48 89 84 24 80 01 00 	mov    %rax,0x180(%rsp)
 1bc:	00 
 1bd:	48 8b 84 24 78 01 00 	mov    0x178(%rsp),%rax
 1c4:	00 
 1c5:	48 89 84 24 18 01 00 	mov    %rax,0x118(%rsp)
 1cc:	00 
 1cd:	48 8b 84 24 80 01 00 	mov    0x180(%rsp),%rax
 1d4:	00 
 1d5:	48 89 84 24 20 01 00 	mov    %rax,0x120(%rsp)
 1dc:	00 
 1dd:	e8 00 00 00 00       	call   1e2 <kernel_main+0x1e2>
 1e2:	48 89 84 24 40 01 00 	mov    %rax,0x140(%rsp)
 1e9:	00 
 1ea:	48 8d 84 24 40 01 00 	lea    0x140(%rsp),%rax
 1f1:	00 
 1f2:	48 89 84 24 68 01 00 	mov    %rax,0x168(%rsp)
 1f9:	00 
 1fa:	48 8d 84 24 40 01 00 	lea    0x140(%rsp),%rax
 201:	00 
 202:	48 89 84 24 a8 01 00 	mov    %rax,0x1a8(%rsp)
 209:	00 
 20a:	48 8b 05 00 00 00 00 	mov    0x0(%rip),%rax        # 211 <kernel_main+0x211>
 211:	48 89 84 24 b0 01 00 	mov    %rax,0x1b0(%rsp)
 218:	00 
 219:	48 8d bc 24 40 01 00 	lea    0x140(%rsp),%rdi
 220:	00 
 221:	e8 00 00 00 00       	call   226 <kernel_main+0x226>
 226:	48 89 c7             	mov    %rax,%rdi
 229:	e8 00 00 00 00       	call   22e <kernel_main+0x22e>
 22e:	48 89 84 24 98 01 00 	mov    %rax,0x198(%rsp)
 235:	00 
 236:	48 8b 05 00 00 00 00 	mov    0x0(%rip),%rax        # 23d <kernel_main+0x23d>
 23d:	48 89 84 24 a0 01 00 	mov    %rax,0x1a0(%rsp)
 244:	00 
 245:	48 8b 84 24 98 01 00 	mov    0x198(%rsp),%rax
 24c:	00 
 24d:	48 89 84 24 30 01 00 	mov    %rax,0x130(%rsp)
 254:	00 
 255:	48 8b 84 24 a0 01 00 	mov    0x1a0(%rsp),%rax
 25c:	00 
 25d:	48 89 84 24 38 01 00 	mov    %rax,0x138(%rsp)
 264:	00 
 265:	48 8b 84 24 18 01 00 	mov    0x118(%rsp),%rax
 26c:	00 
 26d:	48 89 84 24 f8 00 00 	mov    %rax,0xf8(%rsp)
 274:	00 
 275:	48 8b 84 24 20 01 00 	mov    0x120(%rsp),%rax
 27c:	00 
 27d:	48 89 84 24 00 01 00 	mov    %rax,0x100(%rsp)
 284:	00 
 285:	48 8b 84 24 30 01 00 	mov    0x130(%rsp),%rax
 28c:	00 
 28d:	48 89 84 24 08 01 00 	mov    %rax,0x108(%rsp)
 294:	00 
 295:	48 8b 84 24 38 01 00 	mov    0x138(%rsp),%rax
 29c:	00 
 29d:	48 89 84 24 10 01 00 	mov    %rax,0x110(%rsp)
 2a4:	00 
 2a5:	48 8d bc 24 c8 00 00 	lea    0xc8(%rsp),%rdi
 2ac:	00 
 2ad:	48 8d 35 00 00 00 00 	lea    0x0(%rip),%rsi        # 2b4 <kernel_main+0x2b4>
 2b4:	48 8d 94 24 f8 00 00 	lea    0xf8(%rsp),%rdx
 2bb:	00 
 2bc:	e8 00 00 00 00       	call   2c1 <kernel_main+0x2c1>
 2c1:	48 8d bc 24 c8 00 00 	lea    0xc8(%rsp),%rdi
 2c8:	00 
 2c9:	e8 00 00 00 00       	call   2ce <kernel_main+0x2ce>
 2ce:	e9 30 fe ff ff       	jmp    103 <kernel_main+0x103>

kernel-9b89dc178204b098.9dz2nz4zspty4jliy61yqvo3r.rcgu.o:     file format elf64-x86-64


Disassembly of section .text._ZN4core4char7methods15encode_utf8_raw17h2e95329a2672efa5E:

0000000000000000 <_ZN4core4char7methods15encode_utf8_raw17h2e95329a2672efa5E>:
   0:	48 81 ec f8 01 00 00 	sub    $0x1f8,%rsp
   7:	48 89 54 24 28       	mov    %rdx,0x28(%rsp)
   c:	48 89 74 24 20       	mov    %rsi,0x20(%rsp)
  11:	89 7c 24 3c          	mov    %edi,0x3c(%rsp)
  15:	48 89 b4 24 f8 00 00 	mov    %rsi,0xf8(%rsp)
  1c:	00 
  1d:	48 89 94 24 00 01 00 	mov    %rdx,0x100(%rsp)
  24:	00 
  25:	8b 7c 24 3c          	mov    0x3c(%rsp),%edi
  29:	e8 00 00 00 00       	call   2e <_ZN4core4char7methods15encode_utf8_raw17h2e95329a2672efa5E+0x2e>
  2e:	48 8b 7c 24 20       	mov    0x20(%rsp),%rdi
  33:	48 8b 74 24 28       	mov    0x28(%rsp),%rsi
  38:	48 89 44 24 40       	mov    %rax,0x40(%rsp)
  3d:	48 89 bc 24 e8 01 00 	mov    %rdi,0x1e8(%rsp)
  44:	00 
  45:	48 89 b4 24 f0 01 00 	mov    %rsi,0x1f0(%rsp)
  4c:	00 
  4d:	48 8d 15 00 00 00 00 	lea    0x0(%rip),%rdx        # 54 <_ZN4core4char7methods15encode_utf8_raw17h2e95329a2672efa5E+0x54>
  54:	e8 00 00 00 00       	call   59 <_ZN4core4char7methods15encode_utf8_raw17h2e95329a2672efa5E+0x59>
  59:	48 8b 4c 24 40       	mov    0x40(%rsp),%rcx
  5e:	48 89 4c 24 48       	mov    %rcx,0x48(%rsp)
  63:	48 89 44 24 50       	mov    %rax,0x50(%rsp)
  68:	48 89 54 24 58       	mov    %rdx,0x58(%rsp)
  6d:	48 8b 44 24 48       	mov    0x48(%rsp),%rax
  72:	48 ff c8             	dec    %rax
  75:	48 89 44 24 30       	mov    %rax,0x30(%rsp)
  7a:	48 83 e8 03          	sub    $0x3,%rax
  7e:	77 15                	ja     95 <_ZN4core4char7methods15encode_utf8_raw17h2e95329a2672efa5E+0x95>
  80:	48 8b 44 24 30       	mov    0x30(%rsp),%rax
  85:	48 8d 0d 00 00 00 00 	lea    0x0(%rip),%rcx        # 8c <_ZN4core4char7methods15encode_utf8_raw17h2e95329a2672efa5E+0x8c>
  8c:	48 63 04 81          	movslq (%rcx,%rax,4),%rax
  90:	48 01 c8             	add    %rcx,%rax
  93:	ff e0                	jmp    *%rax
  95:	48 8d 7c 24 40       	lea    0x40(%rsp),%rdi
  9a:	48 89 bc 24 60 01 00 	mov    %rdi,0x160(%rsp)
  a1:	00 
  a2:	48 89 bc 24 80 01 00 	mov    %rdi,0x180(%rsp)
  a9:	00 
  aa:	48 8b 05 00 00 00 00 	mov    0x0(%rip),%rax        # b1 <_ZN4core4char7methods15encode_utf8_raw17h2e95329a2672efa5E+0xb1>
  b1:	48 89 44 24 10       	mov    %rax,0x10(%rsp)
  b6:	48 89 84 24 88 01 00 	mov    %rax,0x188(%rsp)
  bd:	00 
  be:	e8 00 00 00 00       	call   c3 <_ZN4core4char7methods15encode_utf8_raw17h2e95329a2672efa5E+0xc3>
  c3:	48 89 c7             	mov    %rax,%rdi
  c6:	e8 00 00 00 00       	call   cb <_ZN4core4char7methods15encode_utf8_raw17h2e95329a2672efa5E+0xcb>
  cb:	48 89 c1             	mov    %rax,%rcx
  ce:	48 8b 44 24 10       	mov    0x10(%rsp),%rax
  d3:	48 89 8c 24 70 01 00 	mov    %rcx,0x170(%rsp)
  da:	00 
  db:	48 89 84 24 78 01 00 	mov    %rax,0x178(%rsp)
  e2:	00 
  e3:	48 8b 84 24 70 01 00 	mov    0x170(%rsp),%rax
  ea:	00 
  eb:	48 8b 8c 24 78 01 00 	mov    0x178(%rsp),%rcx
  f2:	00 
  f3:	48 89 8c 24 c8 00 00 	mov    %rcx,0xc8(%rsp)
  fa:	00 
  fb:	48 89 84 24 c0 00 00 	mov    %rax,0xc0(%rsp)
 102:	00 
 103:	48 8d 7c 24 3c       	lea    0x3c(%rsp),%rdi
 108:	48 89 bc 24 68 01 00 	mov    %rdi,0x168(%rsp)
 10f:	00 
 110:	48 89 bc 24 c0 01 00 	mov    %rdi,0x1c0(%rsp)
 117:	00 
 118:	48 8b 05 00 00 00 00 	mov    0x0(%rip),%rax        # 11f <_ZN4core4char7methods15encode_utf8_raw17h2e95329a2672efa5E+0x11f>
 11f:	48 89 44 24 08       	mov    %rax,0x8(%rsp)
 124:	48 89 84 24 c8 01 00 	mov    %rax,0x1c8(%rsp)
 12b:	00 
 12c:	e8 00 00 00 00       	call   131 <_ZN4core4char7methods15encode_utf8_raw17h2e95329a2672efa5E+0x131>
 131:	48 89 c7             	mov    %rax,%rdi
 134:	e8 00 00 00 00       	call   139 <_ZN4core4char7methods15encode_utf8_raw17h2e95329a2672efa5E+0x139>
 139:	48 8b 54 24 08       	mov    0x8(%rsp),%rdx
 13e:	48 8b 4c 24 28       	mov    0x28(%rsp),%rcx
 143:	48 89 c6             	mov    %rax,%rsi
 146:	48 8b 44 24 10       	mov    0x10(%rsp),%rax
 14b:	48 89 b4 24 b0 01 00 	mov    %rsi,0x1b0(%rsp)
 152:	00 
 153:	48 89 94 24 b8 01 00 	mov    %rdx,0x1b8(%rsp)
 15a:	00 
 15b:	48 8b 94 24 b0 01 00 	mov    0x1b0(%rsp),%rdx
 162:	00 
 163:	48 8b b4 24 b8 01 00 	mov    0x1b8(%rsp),%rsi
 16a:	00 
 16b:	48 89 b4 24 d8 00 00 	mov    %rsi,0xd8(%rsp)
 172:	00 
 173:	48 89 94 24 d0 00 00 	mov    %rdx,0xd0(%rsp)
 17a:	00 
 17b:	48 89 8c 24 f0 00 00 	mov    %rcx,0xf0(%rsp)
 182:	00 
 183:	48 8d bc 24 f0 00 00 	lea    0xf0(%rsp),%rdi
 18a:	00 
 18b:	48 89 bc 24 58 01 00 	mov    %rdi,0x158(%rsp)
 192:	00 
 193:	48 89 bc 24 a0 01 00 	mov    %rdi,0x1a0(%rsp)
 19a:	00 
 19b:	48 89 84 24 a8 01 00 	mov    %rax,0x1a8(%rsp)
 1a2:	00 
 1a3:	e8 00 00 00 00       	call   1a8 <_ZN4core4char7methods15encode_utf8_raw17h2e95329a2672efa5E+0x1a8>
 1a8:	48 89 c7             	mov    %rax,%rdi
 1ab:	e8 00 00 00 00       	call   1b0 <_ZN4core4char7methods15encode_utf8_raw17h2e95329a2672efa5E+0x1b0>
 1b0:	48 89 c1             	mov    %rax,%rcx
 1b3:	48 8b 44 24 10       	mov    0x10(%rsp),%rax
 1b8:	48 89 8c 24 90 01 00 	mov    %rcx,0x190(%rsp)
 1bf:	00 
 1c0:	48 89 84 24 98 01 00 	mov    %rax,0x198(%rsp)
 1c7:	00 
 1c8:	48 8b 84 24 90 01 00 	mov    0x190(%rsp),%rax
 1cf:	00 
 1d0:	48 8b 8c 24 98 01 00 	mov    0x198(%rsp),%rcx
 1d7:	00 
 1d8:	48 89 8c 24 e8 00 00 	mov    %rcx,0xe8(%rsp)
 1df:	00 
 1e0:	48 89 84 24 e0 00 00 	mov    %rax,0xe0(%rsp)
 1e7:	00 
 1e8:	48 8b 84 24 c0 00 00 	mov    0xc0(%rsp),%rax
 1ef:	00 
 1f0:	48 8b 8c 24 c8 00 00 	mov    0xc8(%rsp),%rcx
 1f7:	00 
 1f8:	48 89 8c 24 98 00 00 	mov    %rcx,0x98(%rsp)
 1ff:	00 
 200:	48 89 84 24 90 00 00 	mov    %rax,0x90(%rsp)
 207:	00 
 208:	48 8b 84 24 d0 00 00 	mov    0xd0(%rsp),%rax
 20f:	00 
 210:	48 8b 8c 24 d8 00 00 	mov    0xd8(%rsp),%rcx
 217:	00 
 218:	48 89 8c 24 a8 00 00 	mov    %rcx,0xa8(%rsp)
 21f:	00 
 220:	48 89 84 24 a0 00 00 	mov    %rax,0xa0(%rsp)
 227:	00 
 228:	48 8b 84 24 e0 00 00 	mov    0xe0(%rsp),%rax
 22f:	00 
 230:	48 8b 8c 24 e8 00 00 	mov    0xe8(%rsp),%rcx
 237:	00 
 238:	48 89 8c 24 b8 00 00 	mov    %rcx,0xb8(%rsp)
 23f:	00 
 240:	48 89 84 24 b0 00 00 	mov    %rax,0xb0(%rsp)
 247:	00 
 248:	48 8d 35 00 00 00 00 	lea    0x0(%rip),%rsi        # 24f <_ZN4core4char7methods15encode_utf8_raw17h2e95329a2672efa5E+0x24f>
 24f:	48 8d 7c 24 60       	lea    0x60(%rsp),%rdi
 254:	48 89 7c 24 18       	mov    %rdi,0x18(%rsp)
 259:	48 8d 94 24 90 00 00 	lea    0x90(%rsp),%rdx
 260:	00 
 261:	e8 00 00 00 00       	call   266 <_ZN4core4char7methods15encode_utf8_raw17h2e95329a2672efa5E+0x266>
 266:	48 8b 7c 24 18       	mov    0x18(%rsp),%rdi
 26b:	48 8d 35 00 00 00 00 	lea    0x0(%rip),%rsi        # 272 <_ZN4core4char7methods15encode_utf8_raw17h2e95329a2672efa5E+0x272>
 272:	e8 00 00 00 00       	call   277 <_ZN4core4char7methods15encode_utf8_raw17h2e95329a2672efa5E+0x277>
 277:	48 83 7c 24 58 01    	cmpq   $0x1,0x58(%rsp)
 27d:	73 34                	jae    2b3 <_ZN4core4char7methods15encode_utf8_raw17h2e95329a2672efa5E+0x2b3>
 27f:	e9 11 fe ff ff       	jmp    95 <_ZN4core4char7methods15encode_utf8_raw17h2e95329a2672efa5E+0x95>
 284:	48 83 7c 24 58 02    	cmpq   $0x2,0x58(%rsp)
 28a:	73 75                	jae    301 <_ZN4core4char7methods15encode_utf8_raw17h2e95329a2672efa5E+0x301>
 28c:	e9 04 fe ff ff       	jmp    95 <_ZN4core4char7methods15encode_utf8_raw17h2e95329a2672efa5E+0x95>
 291:	48 83 7c 24 58 03    	cmpq   $0x3,0x58(%rsp)
 297:	0f 83 a3 00 00 00    	jae    340 <_ZN4core4char7methods15encode_utf8_raw17h2e95329a2672efa5E+0x340>
 29d:	e9 f3 fd ff ff       	jmp    95 <_ZN4core4char7methods15encode_utf8_raw17h2e95329a2672efa5E+0x95>
 2a2:	48 83 7c 24 58 04    	cmpq   $0x4,0x58(%rsp)
 2a8:	0f 83 fa 00 00 00    	jae    3a8 <_ZN4core4char7methods15encode_utf8_raw17h2e95329a2672efa5E+0x3a8>
 2ae:	e9 e2 fd ff ff       	jmp    95 <_ZN4core4char7methods15encode_utf8_raw17h2e95329a2672efa5E+0x95>
 2b3:	48 8b 44 24 50       	mov    0x50(%rsp),%rax
 2b8:	48 89 84 24 08 01 00 	mov    %rax,0x108(%rsp)
 2bf:	00 
 2c0:	8b 4c 24 3c          	mov    0x3c(%rsp),%ecx
 2c4:	88 08                	mov    %cl,(%rax)
 2c6:	48 8b 54 24 28       	mov    0x28(%rsp),%rdx
 2cb:	48 8b 74 24 20       	mov    0x20(%rsp),%rsi
 2d0:	48 8b 7c 24 40       	mov    0x40(%rsp),%rdi
 2d5:	48 89 b4 24 d0 01 00 	mov    %rsi,0x1d0(%rsp)
 2dc:	00 
 2dd:	48 89 94 24 d8 01 00 	mov    %rdx,0x1d8(%rsp)
 2e4:	00 
 2e5:	48 89 bc 24 e0 01 00 	mov    %rdi,0x1e0(%rsp)
 2ec:	00 
 2ed:	48 8d 0d 00 00 00 00 	lea    0x0(%rip),%rcx        # 2f4 <_ZN4core4char7methods15encode_utf8_raw17h2e95329a2672efa5E+0x2f4>
 2f4:	e8 00 00 00 00       	call   2f9 <_ZN4core4char7methods15encode_utf8_raw17h2e95329a2672efa5E+0x2f9>
 2f9:	48 81 c4 f8 01 00 00 	add    $0x1f8,%rsp
 300:	c3                   	ret
 301:	48 8b 4c 24 50       	mov    0x50(%rsp),%rcx
 306:	48 89 8c 24 10 01 00 	mov    %rcx,0x110(%rsp)
 30d:	00 
 30e:	48 8b 44 24 50       	mov    0x50(%rsp),%rax
 313:	48 89 c2             	mov    %rax,%rdx
 316:	48 83 c2 01          	add    $0x1,%rdx
 31a:	48 89 94 24 18 01 00 	mov    %rdx,0x118(%rsp)
 321:	00 
 322:	8b 54 24 3c          	mov    0x3c(%rsp),%edx
 326:	c1 ea 06             	shr    $0x6,%edx
 329:	83 e2 1f             	and    $0x1f,%edx
 32c:	80 ca c0             	or     $0xc0,%dl
 32f:	88 11                	mov    %dl,(%rcx)
 331:	8b 4c 24 3c          	mov    0x3c(%rsp),%ecx
 335:	83 e1 3f             	and    $0x3f,%ecx
 338:	80 c9 80             	or     $0x80,%cl
 33b:	88 48 01             	mov    %cl,0x1(%rax)
 33e:	eb 86                	jmp    2c6 <_ZN4core4char7methods15encode_utf8_raw17h2e95329a2672efa5E+0x2c6>
 340:	48 8b 54 24 50       	mov    0x50(%rsp),%rdx
 345:	48 89 94 24 20 01 00 	mov    %rdx,0x120(%rsp)
 34c:	00 
 34d:	48 8b 4c 24 50       	mov    0x50(%rsp),%rcx
 352:	48 89 c8             	mov    %rcx,%rax
 355:	48 83 c0 01          	add    $0x1,%rax
 359:	48 89 84 24 28 01 00 	mov    %rax,0x128(%rsp)
 360:	00 
 361:	48 8b 44 24 50       	mov    0x50(%rsp),%rax
 366:	48 89 c6             	mov    %rax,%rsi
 369:	48 83 c6 02          	add    $0x2,%rsi
 36d:	48 89 b4 24 30 01 00 	mov    %rsi,0x130(%rsp)
 374:	00 
 375:	8b 74 24 3c          	mov    0x3c(%rsp),%esi
 379:	c1 ee 0c             	shr    $0xc,%esi
 37c:	83 e6 0f             	and    $0xf,%esi
 37f:	40 80 ce e0          	or     $0xe0,%sil
 383:	40 88 32             	mov    %sil,(%rdx)
 386:	8b 54 24 3c          	mov    0x3c(%rsp),%edx
 38a:	c1 ea 06             	shr    $0x6,%edx
 38d:	83 e2 3f             	and    $0x3f,%edx
 390:	80 ca 80             	or     $0x80,%dl
 393:	88 51 01             	mov    %dl,0x1(%rcx)
 396:	8b 4c 24 3c          	mov    0x3c(%rsp),%ecx
 39a:	83 e1 3f             	and    $0x3f,%ecx
 39d:	80 c9 80             	or     $0x80,%cl
 3a0:	88 48 02             	mov    %cl,0x2(%rax)
 3a3:	e9 1e ff ff ff       	jmp    2c6 <_ZN4core4char7methods15encode_utf8_raw17h2e95329a2672efa5E+0x2c6>
 3a8:	48 8b 74 24 50       	mov    0x50(%rsp),%rsi
 3ad:	48 89 b4 24 38 01 00 	mov    %rsi,0x138(%rsp)
 3b4:	00 
 3b5:	48 8b 54 24 50       	mov    0x50(%rsp),%rdx
 3ba:	48 89 d0             	mov    %rdx,%rax
 3bd:	48 83 c0 01          	add    $0x1,%rax
 3c1:	48 89 84 24 40 01 00 	mov    %rax,0x140(%rsp)
 3c8:	00 
 3c9:	48 8b 4c 24 50       	mov    0x50(%rsp),%rcx
 3ce:	48 89 c8             	mov    %rcx,%rax
 3d1:	48 83 c0 02          	add    $0x2,%rax
 3d5:	48 89 84 24 48 01 00 	mov    %rax,0x148(%rsp)
 3dc:	00 
 3dd:	48 8b 44 24 50       	mov    0x50(%rsp),%rax
 3e2:	48 89 c7             	mov    %rax,%rdi
 3e5:	48 83 c7 03          	add    $0x3,%rdi
 3e9:	48 89 bc 24 50 01 00 	mov    %rdi,0x150(%rsp)
 3f0:	00 
 3f1:	8b 7c 24 3c          	mov    0x3c(%rsp),%edi
 3f5:	c1 ef 12             	shr    $0x12,%edi
 3f8:	83 e7 07             	and    $0x7,%edi
 3fb:	40 80 cf f0          	or     $0xf0,%dil
 3ff:	40 88 3e             	mov    %dil,(%rsi)
 402:	8b 74 24 3c          	mov    0x3c(%rsp),%esi
 406:	c1 ee 0c             	shr    $0xc,%esi
 409:	83 e6 3f             	and    $0x3f,%esi
 40c:	40 80 ce 80          	or     $0x80,%sil
 410:	40 88 72 01          	mov    %sil,0x1(%rdx)
 414:	8b 54 24 3c          	mov    0x3c(%rsp),%edx
 418:	c1 ea 06             	shr    $0x6,%edx
 41b:	83 e2 3f             	and    $0x3f,%edx
 41e:	80 ca 80             	or     $0x80,%dl
 421:	88 51 02             	mov    %dl,0x2(%rcx)
 424:	8b 4c 24 3c          	mov    0x3c(%rsp),%ecx
 428:	83 e1 3f             	and    $0x3f,%ecx
 42b:	80 c9 80             	or     $0x80,%cl
 42e:	88 48 03             	mov    %cl,0x3(%rax)
 431:	e9 90 fe ff ff       	jmp    2c6 <_ZN4core4char7methods15encode_utf8_raw17h2e95329a2672efa5E+0x2c6>

Disassembly of section .text._ZN4core4char7methods22_$LT$impl$u20$char$GT$11encode_utf817heee569db00876605E:

0000000000000000 <_ZN4core4char7methods22_$LT$impl$u20$char$GT$11encode_utf817heee569db00876605E>:
   0:	48 83 ec 18          	sub    $0x18,%rsp
   4:	89 7c 24 04          	mov    %edi,0x4(%rsp)
   8:	48 89 74 24 08       	mov    %rsi,0x8(%rsp)
   d:	48 89 54 24 10       	mov    %rdx,0x10(%rsp)
  12:	e8 00 00 00 00       	call   17 <_ZN4core4char7methods22_$LT$impl$u20$char$GT$11encode_utf817heee569db00876605E+0x17>
  17:	48 89 c7             	mov    %rax,%rdi
  1a:	48 89 d6             	mov    %rdx,%rsi
  1d:	e8 00 00 00 00       	call   22 <_ZN4core4char7methods22_$LT$impl$u20$char$GT$11encode_utf817heee569db00876605E+0x22>
  22:	48 83 c4 18          	add    $0x18,%rsp
  26:	c3                   	ret

Disassembly of section .text._ZN4core4char7methods22_$LT$impl$u20$char$GT$8is_ascii17h2e121b9f82a57a87E:

0000000000000000 <_ZN4core4char7methods22_$LT$impl$u20$char$GT$8is_ascii17h2e121b9f82a57a87E>:
   0:	50                   	push   %rax
   1:	48 89 3c 24          	mov    %rdi,(%rsp)
   5:	83 3f 7f             	cmpl   $0x7f,(%rdi)
   8:	0f 96 c0             	setbe  %al
   b:	24 01                	and    $0x1,%al
   d:	59                   	pop    %rcx
   e:	c3                   	ret

Disassembly of section .text._ZN4core4char7methods8len_utf817h260218fd658f6ba7E:

0000000000000000 <_ZN4core4char7methods8len_utf817h260218fd658f6ba7E>:
   0:	48 83 ec 18          	sub    $0x18,%rsp
   4:	89 7c 24 04          	mov    %edi,0x4(%rsp)
   8:	89 7c 24 14          	mov    %edi,0x14(%rsp)
   c:	81 ff 80 00 00 00    	cmp    $0x80,%edi
  12:	72 0d                	jb     21 <_ZN4core4char7methods8len_utf817h260218fd658f6ba7E+0x21>
  14:	8b 44 24 04          	mov    0x4(%rsp),%eax
  18:	3d 00 08 00 00       	cmp    $0x800,%eax
  1d:	72 1a                	jb     39 <_ZN4core4char7methods8len_utf817h260218fd658f6ba7E+0x39>
  1f:	eb 0b                	jmp    2c <_ZN4core4char7methods8len_utf817h260218fd658f6ba7E+0x2c>
  21:	48 c7 44 24 08 01 00 	movq   $0x1,0x8(%rsp)
  28:	00 00 
  2a:	eb 2c                	jmp    58 <_ZN4core4char7methods8len_utf817h260218fd658f6ba7E+0x58>
  2c:	8b 44 24 04          	mov    0x4(%rsp),%eax
  30:	3d 00 00 01 00       	cmp    $0x10000,%eax
  35:	72 18                	jb     4f <_ZN4core4char7methods8len_utf817h260218fd658f6ba7E+0x4f>
  37:	eb 0b                	jmp    44 <_ZN4core4char7methods8len_utf817h260218fd658f6ba7E+0x44>
  39:	48 c7 44 24 08 02 00 	movq   $0x2,0x8(%rsp)
  40:	00 00 
  42:	eb 14                	jmp    58 <_ZN4core4char7methods8len_utf817h260218fd658f6ba7E+0x58>
  44:	48 c7 44 24 08 04 00 	movq   $0x4,0x8(%rsp)
  4b:	00 00 
  4d:	eb 09                	jmp    58 <_ZN4core4char7methods8len_utf817h260218fd658f6ba7E+0x58>
  4f:	48 c7 44 24 08 03 00 	movq   $0x3,0x8(%rsp)
  56:	00 00 
  58:	48 8b 44 24 08       	mov    0x8(%rsp),%rax
  5d:	48 83 c4 18          	add    $0x18,%rsp
  61:	c3                   	ret

kernel-9b89dc178204b098.9xlzrocmcvdtd2wb21ivtohi5.rcgu.o:     file format elf64-x86-64


Disassembly of section .text._ZN42_$LT$$RF$T$u20$as$u20$core..fmt..Debug$GT$3fmt17h1217d75a11a18c43E:

0000000000000000 <_ZN42_$LT$$RF$T$u20$as$u20$core..fmt..Debug$GT$3fmt17h1217d75a11a18c43E>:
   0:	48 83 ec 18          	sub    $0x18,%rsp
   4:	48 89 7c 24 08       	mov    %rdi,0x8(%rsp)
   9:	48 89 74 24 10       	mov    %rsi,0x10(%rsp)
   e:	48 8b 3f             	mov    (%rdi),%rdi
  11:	e8 00 00 00 00       	call   16 <_ZN42_$LT$$RF$T$u20$as$u20$core..fmt..Debug$GT$3fmt17h1217d75a11a18c43E+0x16>
  16:	24 01                	and    $0x1,%al
  18:	48 83 c4 18          	add    $0x18,%rsp
  1c:	c3                   	ret

kernel-9b89dc178204b098.a489cbadt28k83x6t4jwdqncr.rcgu.o:     file format elf64-x86-64


Disassembly of section .text._ZN4spin4once17Once$LT$T$C$R$GT$13try_call_once17hb8cb1ba554be1e9bE:

0000000000000000 <_ZN4spin4once17Once$LT$T$C$R$GT$13try_call_once17hb8cb1ba554be1e9bE>:
   0:	48 83 ec 38          	sub    $0x38,%rsp
   4:	48 89 3c 24          	mov    %rdi,(%rsp)
   8:	48 89 7c 24 20       	mov    %rdi,0x20(%rsp)
   d:	c6 44 24 1f 00       	movb   $0x0,0x1f(%rsp)
  12:	c6 44 24 1f 01       	movb   $0x1,0x1f(%rsp)
  17:	e8 00 00 00 00       	call   1c <_ZN4spin4once17Once$LT$T$C$R$GT$13try_call_once17hb8cb1ba554be1e9bE+0x1c>
  1c:	48 89 44 24 10       	mov    %rax,0x10(%rsp)
  21:	48 8b 54 24 10       	mov    0x10(%rsp),%rdx
  26:	b8 01 00 00 00       	mov    $0x1,%eax
  2b:	31 c9                	xor    %ecx,%ecx
  2d:	48 83 fa 00          	cmp    $0x0,%rdx
  31:	48 0f 44 c1          	cmove  %rcx,%rax
  35:	48 83 f8 01          	cmp    $0x1,%rax
  39:	75 11                	jne    4c <_ZN4spin4once17Once$LT$T$C$R$GT$13try_call_once17hb8cb1ba554be1e9bE+0x4c>
  3b:	48 8b 44 24 10       	mov    0x10(%rsp),%rax
  40:	48 89 44 24 30       	mov    %rax,0x30(%rsp)
  45:	48 89 44 24 08       	mov    %rax,0x8(%rsp)
  4a:	eb 13                	jmp    5f <_ZN4spin4once17Once$LT$T$C$R$GT$13try_call_once17hb8cb1ba554be1e9bE+0x5f>
  4c:	48 8b 3c 24          	mov    (%rsp),%rdi
  50:	c6 44 24 1f 00       	movb   $0x0,0x1f(%rsp)
  55:	e8 00 00 00 00       	call   5a <_ZN4spin4once17Once$LT$T$C$R$GT$13try_call_once17hb8cb1ba554be1e9bE+0x5a>
  5a:	48 89 44 24 08       	mov    %rax,0x8(%rsp)
  5f:	f6 44 24 1f 01       	testb  $0x1,0x1f(%rsp)
  64:	75 0a                	jne    70 <_ZN4spin4once17Once$LT$T$C$R$GT$13try_call_once17hb8cb1ba554be1e9bE+0x70>
  66:	48 8b 44 24 08       	mov    0x8(%rsp),%rax
  6b:	48 83 c4 38          	add    $0x38,%rsp
  6f:	c3                   	ret
  70:	eb f4                	jmp    66 <_ZN4spin4once17Once$LT$T$C$R$GT$13try_call_once17hb8cb1ba554be1e9bE+0x66>

Disassembly of section .text._ZN4spin4once17Once$LT$T$C$R$GT$13try_call_once17hfe9b8499e0edbf07E:

0000000000000000 <_ZN4spin4once17Once$LT$T$C$R$GT$13try_call_once17hfe9b8499e0edbf07E>:
   0:	48 83 ec 38          	sub    $0x38,%rsp
   4:	48 89 3c 24          	mov    %rdi,(%rsp)
   8:	48 89 7c 24 20       	mov    %rdi,0x20(%rsp)
   d:	c6 44 24 1f 00       	movb   $0x0,0x1f(%rsp)
  12:	c6 44 24 1f 01       	movb   $0x1,0x1f(%rsp)
  17:	e8 00 00 00 00       	call   1c <_ZN4spin4once17Once$LT$T$C$R$GT$13try_call_once17hfe9b8499e0edbf07E+0x1c>
  1c:	48 89 44 24 10       	mov    %rax,0x10(%rsp)
  21:	48 8b 54 24 10       	mov    0x10(%rsp),%rdx
  26:	b8 01 00 00 00       	mov    $0x1,%eax
  2b:	31 c9                	xor    %ecx,%ecx
  2d:	48 83 fa 00          	cmp    $0x0,%rdx
  31:	48 0f 44 c1          	cmove  %rcx,%rax
  35:	48 83 f8 01          	cmp    $0x1,%rax
  39:	75 11                	jne    4c <_ZN4spin4once17Once$LT$T$C$R$GT$13try_call_once17hfe9b8499e0edbf07E+0x4c>
  3b:	48 8b 44 24 10       	mov    0x10(%rsp),%rax
  40:	48 89 44 24 30       	mov    %rax,0x30(%rsp)
  45:	48 89 44 24 08       	mov    %rax,0x8(%rsp)
  4a:	eb 13                	jmp    5f <_ZN4spin4once17Once$LT$T$C$R$GT$13try_call_once17hfe9b8499e0edbf07E+0x5f>
  4c:	48 8b 3c 24          	mov    (%rsp),%rdi
  50:	c6 44 24 1f 00       	movb   $0x0,0x1f(%rsp)
  55:	e8 00 00 00 00       	call   5a <_ZN4spin4once17Once$LT$T$C$R$GT$13try_call_once17hfe9b8499e0edbf07E+0x5a>
  5a:	48 89 44 24 08       	mov    %rax,0x8(%rsp)
  5f:	f6 44 24 1f 01       	testb  $0x1,0x1f(%rsp)
  64:	75 0a                	jne    70 <_ZN4spin4once17Once$LT$T$C$R$GT$13try_call_once17hfe9b8499e0edbf07E+0x70>
  66:	48 8b 44 24 08       	mov    0x8(%rsp),%rax
  6b:	48 83 c4 38          	add    $0x38,%rsp
  6f:	c3                   	ret
  70:	eb f4                	jmp    66 <_ZN4spin4once17Once$LT$T$C$R$GT$13try_call_once17hfe9b8499e0edbf07E+0x66>

Disassembly of section .text._ZN4spin4once17Once$LT$T$C$R$GT$18try_call_once_slow17hd624b2c036132642E:

0000000000000000 <_ZN4spin4once17Once$LT$T$C$R$GT$18try_call_once_slow17hd624b2c036132642E>:
   0:	48 81 ec a8 20 00 00 	sub    $0x20a8,%rsp
   7:	48 89 7c 24 10       	mov    %rdi,0x10(%rsp)
   c:	48 89 bc 24 38 20 00 	mov    %rdi,0x2038(%rsp)
  13:	00 
  14:	c6 84 24 37 20 00 00 	movb   $0x0,0x2037(%rsp)
  1b:	00 
  1c:	c6 84 24 37 20 00 00 	movb   $0x1,0x2037(%rsp)
  23:	01 
  24:	48 8b 7c 24 10       	mov    0x10(%rsp),%rdi
  29:	48 81 c7 00 10 00 00 	add    $0x1000,%rdi
  30:	c6 44 24 24 00       	movb   $0x0,0x24(%rsp)
  35:	c6 44 24 25 01       	movb   $0x1,0x25(%rsp)
  3a:	c6 44 24 26 02       	movb   $0x2,0x26(%rsp)
  3f:	c6 44 24 27 02       	movb   $0x2,0x27(%rsp)
  44:	40 8a 74 24 24       	mov    0x24(%rsp),%sil
  49:	8a 54 24 25          	mov    0x25(%rsp),%dl
  4d:	8a 4c 24 26          	mov    0x26(%rsp),%cl
  51:	8a 44 24 27          	mov    0x27(%rsp),%al
  55:	40 88 b4 24 72 20 00 	mov    %sil,0x2072(%rsp)
  5c:	00 
  5d:	88 94 24 73 20 00 00 	mov    %dl,0x2073(%rsp)
  64:	48 89 bc 24 78 20 00 	mov    %rdi,0x2078(%rsp)
  6b:	00 
  6c:	88 8c 24 83 20 00 00 	mov    %cl,0x2083(%rsp)
  73:	88 84 24 84 20 00 00 	mov    %al,0x2084(%rsp)
  7a:	40 8a b4 24 72 20 00 	mov    0x2072(%rsp),%sil
  81:	00 
  82:	8a 94 24 73 20 00 00 	mov    0x2073(%rsp),%dl
  89:	40 0f b6 f6          	movzbl %sil,%esi
  8d:	0f b6 d2             	movzbl %dl,%edx
  90:	0f b6 c9             	movzbl %cl,%ecx
  93:	44 0f b6 c0          	movzbl %al,%r8d
  97:	e8 00 00 00 00       	call   9c <_ZN4spin4once17Once$LT$T$C$R$GT$18try_call_once_slow17hd624b2c036132642E+0x9c>
  9c:	24 01                	and    $0x1,%al
  9e:	88 84 24 76 20 00 00 	mov    %al,0x2076(%rsp)
  a5:	88 94 24 77 20 00 00 	mov    %dl,0x2077(%rsp)
  ac:	8a 84 24 76 20 00 00 	mov    0x2076(%rsp),%al
  b3:	24 01                	and    $0x1,%al
  b5:	0f b6 c0             	movzbl %al,%eax
  b8:	48 83 f8 00          	cmp    $0x0,%rax
  bc:	75 27                	jne    e5 <_ZN4spin4once17Once$LT$T$C$R$GT$18try_call_once_slow17hd624b2c036132642E+0xe5>
  be:	8a 84 24 77 20 00 00 	mov    0x2077(%rsp),%al
  c5:	88 84 24 85 20 00 00 	mov    %al,0x2085(%rsp)
  cc:	0f b6 f8             	movzbl %al,%edi
  cf:	e8 00 00 00 00       	call   d4 <_ZN4spin4once17Once$LT$T$C$R$GT$18try_call_once_slow17hd624b2c036132642E+0xd4>
  d4:	88 84 24 75 20 00 00 	mov    %al,0x2075(%rsp)
  db:	c6 84 24 74 20 00 00 	movb   $0x0,0x2074(%rsp)
  e2:	00 
  e3:	eb 25                	jmp    10a <_ZN4spin4once17Once$LT$T$C$R$GT$18try_call_once_slow17hd624b2c036132642E+0x10a>
  e5:	8a 84 24 77 20 00 00 	mov    0x2077(%rsp),%al
  ec:	88 84 24 86 20 00 00 	mov    %al,0x2086(%rsp)
  f3:	0f b6 f8             	movzbl %al,%edi
  f6:	e8 00 00 00 00       	call   fb <_ZN4spin4once17Once$LT$T$C$R$GT$18try_call_once_slow17hd624b2c036132642E+0xfb>
  fb:	88 84 24 75 20 00 00 	mov    %al,0x2075(%rsp)
 102:	c6 84 24 74 20 00 00 	movb   $0x1,0x2074(%rsp)
 109:	01 
 10a:	8a 8c 24 74 20 00 00 	mov    0x2074(%rsp),%cl
 111:	8a 84 24 75 20 00 00 	mov    0x2075(%rsp),%al
 118:	80 e1 01             	and    $0x1,%cl
 11b:	88 4c 24 22          	mov    %cl,0x22(%rsp)
 11f:	88 44 24 23          	mov    %al,0x23(%rsp)
 123:	8a 44 24 22          	mov    0x22(%rsp),%al
 127:	24 01                	and    $0x1,%al
 129:	0f b6 c0             	movzbl %al,%eax
 12c:	48 83 f8 00          	cmp    $0x0,%rax
 130:	75 37                	jne    169 <_ZN4spin4once17Once$LT$T$C$R$GT$18try_call_once_slow17hd624b2c036132642E+0x169>
 132:	48 8b 44 24 10       	mov    0x10(%rsp),%rax
 137:	8a 4c 24 23          	mov    0x23(%rsp),%cl
 13b:	88 8c 24 47 20 00 00 	mov    %cl,0x2047(%rsp)
 142:	48 05 00 10 00 00    	add    $0x1000,%rax
 148:	48 89 44 24 08       	mov    %rax,0x8(%rsp)
 14d:	48 89 84 24 48 20 00 	mov    %rax,0x2048(%rsp)
 154:	00 
 155:	c6 84 24 37 20 00 00 	movb   $0x0,0x2037(%rsp)
 15c:	00 
 15d:	48 8d 7c 24 30       	lea    0x30(%rsp),%rdi
 162:	e8 00 00 00 00       	call   167 <_ZN4spin4once17Once$LT$T$C$R$GT$18try_call_once_slow17hd624b2c036132642E+0x167>
 167:	eb 1d                	jmp    186 <_ZN4spin4once17Once$LT$T$C$R$GT$18try_call_once_slow17hd624b2c036132642E+0x186>
 169:	0f b6 44 24 23       	movzbl 0x23(%rsp),%eax
 16e:	48 89 04 24          	mov    %rax,(%rsp)
 172:	48 8b 04 24          	mov    (%rsp),%rax
 176:	48 8d 0d 00 00 00 00 	lea    0x0(%rip),%rcx        # 17d <_ZN4spin4once17Once$LT$T$C$R$GT$18try_call_once_slow17hd624b2c036132642E+0x17d>
 17d:	48 63 04 81          	movslq (%rcx,%rax,4),%rax
 181:	48 01 c8             	add    %rcx,%rax
 184:	ff e0                	jmp    *%rax
 186:	48 8d bc 24 30 10 00 	lea    0x1030(%rsp),%rdi
 18d:	00 
 18e:	48 8d 74 24 30       	lea    0x30(%rsp),%rsi
 193:	ba 00 10 00 00       	mov    $0x1000,%edx
 198:	e8 00 00 00 00       	call   19d <_ZN4spin4once17Once$LT$T$C$R$GT$18try_call_once_slow17hd624b2c036132642E+0x19d>
 19d:	48 8b 7c 24 10       	mov    0x10(%rsp),%rdi
 1a2:	48 89 bc 24 68 20 00 	mov    %rdi,0x2068(%rsp)
 1a9:	00 
 1aa:	48 89 bc 24 58 20 00 	mov    %rdi,0x2058(%rsp)
 1b1:	00 
 1b2:	48 89 bc 24 60 20 00 	mov    %rdi,0x2060(%rsp)
 1b9:	00 
 1ba:	48 8d b4 24 30 10 00 	lea    0x1030(%rsp),%rsi
 1c1:	00 
 1c2:	e8 00 00 00 00       	call   1c7 <_ZN4spin4once17Once$LT$T$C$R$GT$18try_call_once_slow17hd624b2c036132642E+0x1c7>
 1c7:	48 8b 7c 24 08       	mov    0x8(%rsp),%rdi
 1cc:	e8 00 00 00 00       	call   1d1 <_ZN4spin4once17Once$LT$T$C$R$GT$18try_call_once_slow17hd624b2c036132642E+0x1d1>
 1d1:	48 8b 7c 24 10       	mov    0x10(%rsp),%rdi
 1d6:	48 81 c7 00 10 00 00 	add    $0x1000,%rdi
 1dd:	c6 84 24 35 20 00 00 	movb   $0x2,0x2035(%rsp)
 1e4:	02 
 1e5:	c6 84 24 36 20 00 00 	movb   $0x1,0x2036(%rsp)
 1ec:	01 
 1ed:	8a 8c 24 35 20 00 00 	mov    0x2035(%rsp),%cl
 1f4:	8a 84 24 36 20 00 00 	mov    0x2036(%rsp),%al
 1fb:	88 8c 24 97 20 00 00 	mov    %cl,0x2097(%rsp)
 202:	48 89 bc 24 98 20 00 	mov    %rdi,0x2098(%rsp)
 209:	00 
 20a:	88 84 24 a7 20 00 00 	mov    %al,0x20a7(%rsp)
 211:	8a 8c 24 97 20 00 00 	mov    0x2097(%rsp),%cl
 218:	0f b6 f1             	movzbl %cl,%esi
 21b:	0f b6 d0             	movzbl %al,%edx
 21e:	e8 00 00 00 00       	call   223 <_ZN4spin4once17Once$LT$T$C$R$GT$18try_call_once_slow17hd624b2c036132642E+0x223>
 223:	48 8b 7c 24 10       	mov    0x10(%rsp),%rdi
 228:	e8 00 00 00 00       	call   22d <_ZN4spin4once17Once$LT$T$C$R$GT$18try_call_once_slow17hd624b2c036132642E+0x22d>
 22d:	48 89 44 24 18       	mov    %rax,0x18(%rsp)
 232:	f6 84 24 37 20 00 00 	testb  $0x1,0x2037(%rsp)
 239:	01 
 23a:	75 7d                	jne    2b9 <_ZN4spin4once17Once$LT$T$C$R$GT$18try_call_once_slow17hd624b2c036132642E+0x2b9>
 23c:	eb 6e                	jmp    2ac <_ZN4spin4once17Once$LT$T$C$R$GT$18try_call_once_slow17hd624b2c036132642E+0x2ac>
 23e:	0f 0b                	ud2
 240:	48 8b 7c 24 10       	mov    0x10(%rsp),%rdi
 245:	e8 00 00 00 00       	call   24a <_ZN4spin4once17Once$LT$T$C$R$GT$18try_call_once_slow17hd624b2c036132642E+0x24a>
 24a:	48 89 44 24 28       	mov    %rax,0x28(%rsp)
 24f:	48 8b 54 24 28       	mov    0x28(%rsp),%rdx
 254:	b8 01 00 00 00       	mov    $0x1,%eax
 259:	31 c9                	xor    %ecx,%ecx
 25b:	48 83 fa 00          	cmp    $0x0,%rdx
 25f:	48 0f 44 c1          	cmove  %rcx,%rax
 263:	48 83 f8 00          	cmp    $0x0,%rax
 267:	0f 84 b7 fd ff ff    	je     24 <_ZN4spin4once17Once$LT$T$C$R$GT$18try_call_once_slow17hd624b2c036132642E+0x24>
 26d:	eb 29                	jmp    298 <_ZN4spin4once17Once$LT$T$C$R$GT$18try_call_once_slow17hd624b2c036132642E+0x298>
 26f:	48 8b 7c 24 10       	mov    0x10(%rsp),%rdi
 274:	e8 00 00 00 00       	call   279 <_ZN4spin4once17Once$LT$T$C$R$GT$18try_call_once_slow17hd624b2c036132642E+0x279>
 279:	48 89 44 24 18       	mov    %rax,0x18(%rsp)
 27e:	eb b2                	jmp    232 <_ZN4spin4once17Once$LT$T$C$R$GT$18try_call_once_slow17hd624b2c036132642E+0x232>
 280:	48 8d 3d 00 00 00 00 	lea    0x0(%rip),%rdi        # 287 <_ZN4spin4once17Once$LT$T$C$R$GT$18try_call_once_slow17hd624b2c036132642E+0x287>
 287:	48 8d 15 00 00 00 00 	lea    0x0(%rip),%rdx        # 28e <_ZN4spin4once17Once$LT$T$C$R$GT$18try_call_once_slow17hd624b2c036132642E+0x28e>
 28e:	be 0d 00 00 00       	mov    $0xd,%esi
 293:	e8 00 00 00 00       	call   298 <_ZN4spin4once17Once$LT$T$C$R$GT$18try_call_once_slow17hd624b2c036132642E+0x298>
 298:	48 8b 44 24 28       	mov    0x28(%rsp),%rax
 29d:	48 89 84 24 50 20 00 	mov    %rax,0x2050(%rsp)
 2a4:	00 
 2a5:	48 89 44 24 18       	mov    %rax,0x18(%rsp)
 2aa:	eb 86                	jmp    232 <_ZN4spin4once17Once$LT$T$C$R$GT$18try_call_once_slow17hd624b2c036132642E+0x232>
 2ac:	48 8b 44 24 18       	mov    0x18(%rsp),%rax
 2b1:	48 81 c4 a8 20 00 00 	add    $0x20a8,%rsp
 2b8:	c3                   	ret
 2b9:	eb f1                	jmp    2ac <_ZN4spin4once17Once$LT$T$C$R$GT$18try_call_once_slow17hd624b2c036132642E+0x2ac>

Disassembly of section .text._ZN4spin4once17Once$LT$T$C$R$GT$18try_call_once_slow17hfc8545fbb28b5208E:

0000000000000000 <_ZN4spin4once17Once$LT$T$C$R$GT$18try_call_once_slow17hfc8545fbb28b5208E>:
   0:	48 81 ec f8 00 00 00 	sub    $0xf8,%rsp
   7:	48 89 7c 24 10       	mov    %rdi,0x10(%rsp)
   c:	48 89 bc 24 88 00 00 	mov    %rdi,0x88(%rsp)
  13:	00 
  14:	c6 84 24 87 00 00 00 	movb   $0x0,0x87(%rsp)
  1b:	00 
  1c:	c6 84 24 87 00 00 00 	movb   $0x1,0x87(%rsp)
  23:	01 
  24:	48 8b 7c 24 10       	mov    0x10(%rsp),%rdi
  29:	48 83 c7 28          	add    $0x28,%rdi
  2d:	c6 44 24 24 00       	movb   $0x0,0x24(%rsp)
  32:	c6 44 24 25 01       	movb   $0x1,0x25(%rsp)
  37:	c6 44 24 26 02       	movb   $0x2,0x26(%rsp)
  3c:	c6 44 24 27 02       	movb   $0x2,0x27(%rsp)
  41:	40 8a 74 24 24       	mov    0x24(%rsp),%sil
  46:	8a 54 24 25          	mov    0x25(%rsp),%dl
  4a:	8a 4c 24 26          	mov    0x26(%rsp),%cl
  4e:	8a 44 24 27          	mov    0x27(%rsp),%al
  52:	40 88 b4 24 c2 00 00 	mov    %sil,0xc2(%rsp)
  59:	00 
  5a:	88 94 24 c3 00 00 00 	mov    %dl,0xc3(%rsp)
  61:	48 89 bc 24 c8 00 00 	mov    %rdi,0xc8(%rsp)
  68:	00 
  69:	88 8c 24 d3 00 00 00 	mov    %cl,0xd3(%rsp)
  70:	88 84 24 d4 00 00 00 	mov    %al,0xd4(%rsp)
  77:	40 8a b4 24 c2 00 00 	mov    0xc2(%rsp),%sil
  7e:	00 
  7f:	8a 94 24 c3 00 00 00 	mov    0xc3(%rsp),%dl
  86:	40 0f b6 f6          	movzbl %sil,%esi
  8a:	0f b6 d2             	movzbl %dl,%edx
  8d:	0f b6 c9             	movzbl %cl,%ecx
  90:	44 0f b6 c0          	movzbl %al,%r8d
  94:	e8 00 00 00 00       	call   99 <_ZN4spin4once17Once$LT$T$C$R$GT$18try_call_once_slow17hfc8545fbb28b5208E+0x99>
  99:	24 01                	and    $0x1,%al
  9b:	88 84 24 c6 00 00 00 	mov    %al,0xc6(%rsp)
  a2:	88 94 24 c7 00 00 00 	mov    %dl,0xc7(%rsp)
  a9:	8a 84 24 c6 00 00 00 	mov    0xc6(%rsp),%al
  b0:	24 01                	and    $0x1,%al
  b2:	0f b6 c0             	movzbl %al,%eax
  b5:	48 83 f8 00          	cmp    $0x0,%rax
  b9:	75 27                	jne    e2 <_ZN4spin4once17Once$LT$T$C$R$GT$18try_call_once_slow17hfc8545fbb28b5208E+0xe2>
  bb:	8a 84 24 c7 00 00 00 	mov    0xc7(%rsp),%al
  c2:	88 84 24 d5 00 00 00 	mov    %al,0xd5(%rsp)
  c9:	0f b6 f8             	movzbl %al,%edi
  cc:	e8 00 00 00 00       	call   d1 <_ZN4spin4once17Once$LT$T$C$R$GT$18try_call_once_slow17hfc8545fbb28b5208E+0xd1>
  d1:	88 84 24 c5 00 00 00 	mov    %al,0xc5(%rsp)
  d8:	c6 84 24 c4 00 00 00 	movb   $0x0,0xc4(%rsp)
  df:	00 
  e0:	eb 25                	jmp    107 <_ZN4spin4once17Once$LT$T$C$R$GT$18try_call_once_slow17hfc8545fbb28b5208E+0x107>
  e2:	8a 84 24 c7 00 00 00 	mov    0xc7(%rsp),%al
  e9:	88 84 24 d6 00 00 00 	mov    %al,0xd6(%rsp)
  f0:	0f b6 f8             	movzbl %al,%edi
  f3:	e8 00 00 00 00       	call   f8 <_ZN4spin4once17Once$LT$T$C$R$GT$18try_call_once_slow17hfc8545fbb28b5208E+0xf8>
  f8:	88 84 24 c5 00 00 00 	mov    %al,0xc5(%rsp)
  ff:	c6 84 24 c4 00 00 00 	movb   $0x1,0xc4(%rsp)
 106:	01 
 107:	8a 8c 24 c4 00 00 00 	mov    0xc4(%rsp),%cl
 10e:	8a 84 24 c5 00 00 00 	mov    0xc5(%rsp),%al
 115:	80 e1 01             	and    $0x1,%cl
 118:	88 4c 24 22          	mov    %cl,0x22(%rsp)
 11c:	88 44 24 23          	mov    %al,0x23(%rsp)
 120:	8a 44 24 22          	mov    0x22(%rsp),%al
 124:	24 01                	and    $0x1,%al
 126:	0f b6 c0             	movzbl %al,%eax
 129:	48 83 f8 00          	cmp    $0x0,%rax
 12d:	75 35                	jne    164 <_ZN4spin4once17Once$LT$T$C$R$GT$18try_call_once_slow17hfc8545fbb28b5208E+0x164>
 12f:	48 8b 44 24 10       	mov    0x10(%rsp),%rax
 134:	8a 4c 24 23          	mov    0x23(%rsp),%cl
 138:	88 8c 24 97 00 00 00 	mov    %cl,0x97(%rsp)
 13f:	48 83 c0 28          	add    $0x28,%rax
 143:	48 89 44 24 08       	mov    %rax,0x8(%rsp)
 148:	48 89 84 24 98 00 00 	mov    %rax,0x98(%rsp)
 14f:	00 
 150:	c6 84 24 87 00 00 00 	movb   $0x0,0x87(%rsp)
 157:	00 
 158:	48 8d 7c 24 30       	lea    0x30(%rsp),%rdi
 15d:	e8 00 00 00 00       	call   162 <_ZN4spin4once17Once$LT$T$C$R$GT$18try_call_once_slow17hfc8545fbb28b5208E+0x162>
 162:	eb 1d                	jmp    181 <_ZN4spin4once17Once$LT$T$C$R$GT$18try_call_once_slow17hfc8545fbb28b5208E+0x181>
 164:	0f b6 44 24 23       	movzbl 0x23(%rsp),%eax
 169:	48 89 04 24          	mov    %rax,(%rsp)
 16d:	48 8b 04 24          	mov    (%rsp),%rax
 171:	48 8d 0d 00 00 00 00 	lea    0x0(%rip),%rcx        # 178 <_ZN4spin4once17Once$LT$T$C$R$GT$18try_call_once_slow17hfc8545fbb28b5208E+0x178>
 178:	48 63 04 81          	movslq (%rcx,%rax,4),%rax
 17c:	48 01 c8             	add    %rcx,%rax
 17f:	ff e0                	jmp    *%rax
 181:	48 8d 7c 24 58       	lea    0x58(%rsp),%rdi
 186:	48 8d 74 24 30       	lea    0x30(%rsp),%rsi
 18b:	ba 28 00 00 00       	mov    $0x28,%edx
 190:	e8 00 00 00 00       	call   195 <_ZN4spin4once17Once$LT$T$C$R$GT$18try_call_once_slow17hfc8545fbb28b5208E+0x195>
 195:	48 8b 7c 24 10       	mov    0x10(%rsp),%rdi
 19a:	48 89 bc 24 b8 00 00 	mov    %rdi,0xb8(%rsp)
 1a1:	00 
 1a2:	48 89 bc 24 a8 00 00 	mov    %rdi,0xa8(%rsp)
 1a9:	00 
 1aa:	48 89 bc 24 b0 00 00 	mov    %rdi,0xb0(%rsp)
 1b1:	00 
 1b2:	48 8d 74 24 58       	lea    0x58(%rsp),%rsi
 1b7:	e8 00 00 00 00       	call   1bc <_ZN4spin4once17Once$LT$T$C$R$GT$18try_call_once_slow17hfc8545fbb28b5208E+0x1bc>
 1bc:	48 8b 7c 24 08       	mov    0x8(%rsp),%rdi
 1c1:	e8 00 00 00 00       	call   1c6 <_ZN4spin4once17Once$LT$T$C$R$GT$18try_call_once_slow17hfc8545fbb28b5208E+0x1c6>
 1c6:	48 8b 7c 24 10       	mov    0x10(%rsp),%rdi
 1cb:	48 83 c7 28          	add    $0x28,%rdi
 1cf:	c6 84 24 85 00 00 00 	movb   $0x2,0x85(%rsp)
 1d6:	02 
 1d7:	c6 84 24 86 00 00 00 	movb   $0x1,0x86(%rsp)
 1de:	01 
 1df:	8a 8c 24 85 00 00 00 	mov    0x85(%rsp),%cl
 1e6:	8a 84 24 86 00 00 00 	mov    0x86(%rsp),%al
 1ed:	88 8c 24 e7 00 00 00 	mov    %cl,0xe7(%rsp)
 1f4:	48 89 bc 24 e8 00 00 	mov    %rdi,0xe8(%rsp)
 1fb:	00 
 1fc:	88 84 24 f7 00 00 00 	mov    %al,0xf7(%rsp)
 203:	8a 8c 24 e7 00 00 00 	mov    0xe7(%rsp),%cl
 20a:	0f b6 f1             	movzbl %cl,%esi
 20d:	0f b6 d0             	movzbl %al,%edx
 210:	e8 00 00 00 00       	call   215 <_ZN4spin4once17Once$LT$T$C$R$GT$18try_call_once_slow17hfc8545fbb28b5208E+0x215>
 215:	48 8b 7c 24 10       	mov    0x10(%rsp),%rdi
 21a:	e8 00 00 00 00       	call   21f <_ZN4spin4once17Once$LT$T$C$R$GT$18try_call_once_slow17hfc8545fbb28b5208E+0x21f>
 21f:	48 89 44 24 18       	mov    %rax,0x18(%rsp)
 224:	f6 84 24 87 00 00 00 	testb  $0x1,0x87(%rsp)
 22b:	01 
 22c:	75 7d                	jne    2ab <_ZN4spin4once17Once$LT$T$C$R$GT$18try_call_once_slow17hfc8545fbb28b5208E+0x2ab>
 22e:	eb 6e                	jmp    29e <_ZN4spin4once17Once$LT$T$C$R$GT$18try_call_once_slow17hfc8545fbb28b5208E+0x29e>
 230:	0f 0b                	ud2
 232:	48 8b 7c 24 10       	mov    0x10(%rsp),%rdi
 237:	e8 00 00 00 00       	call   23c <_ZN4spin4once17Once$LT$T$C$R$GT$18try_call_once_slow17hfc8545fbb28b5208E+0x23c>
 23c:	48 89 44 24 28       	mov    %rax,0x28(%rsp)
 241:	48 8b 54 24 28       	mov    0x28(%rsp),%rdx
 246:	b8 01 00 00 00       	mov    $0x1,%eax
 24b:	31 c9                	xor    %ecx,%ecx
 24d:	48 83 fa 00          	cmp    $0x0,%rdx
 251:	48 0f 44 c1          	cmove  %rcx,%rax
 255:	48 83 f8 00          	cmp    $0x0,%rax
 259:	0f 84 c5 fd ff ff    	je     24 <_ZN4spin4once17Once$LT$T$C$R$GT$18try_call_once_slow17hfc8545fbb28b5208E+0x24>
 25f:	eb 29                	jmp    28a <_ZN4spin4once17Once$LT$T$C$R$GT$18try_call_once_slow17hfc8545fbb28b5208E+0x28a>
 261:	48 8b 7c 24 10       	mov    0x10(%rsp),%rdi
 266:	e8 00 00 00 00       	call   26b <_ZN4spin4once17Once$LT$T$C$R$GT$18try_call_once_slow17hfc8545fbb28b5208E+0x26b>
 26b:	48 89 44 24 18       	mov    %rax,0x18(%rsp)
 270:	eb b2                	jmp    224 <_ZN4spin4once17Once$LT$T$C$R$GT$18try_call_once_slow17hfc8545fbb28b5208E+0x224>
 272:	48 8d 3d 00 00 00 00 	lea    0x0(%rip),%rdi        # 279 <_ZN4spin4once17Once$LT$T$C$R$GT$18try_call_once_slow17hfc8545fbb28b5208E+0x279>
 279:	48 8d 15 00 00 00 00 	lea    0x0(%rip),%rdx        # 280 <_ZN4spin4once17Once$LT$T$C$R$GT$18try_call_once_slow17hfc8545fbb28b5208E+0x280>
 280:	be 0d 00 00 00       	mov    $0xd,%esi
 285:	e8 00 00 00 00       	call   28a <_ZN4spin4once17Once$LT$T$C$R$GT$18try_call_once_slow17hfc8545fbb28b5208E+0x28a>
 28a:	48 8b 44 24 28       	mov    0x28(%rsp),%rax
 28f:	48 89 84 24 a0 00 00 	mov    %rax,0xa0(%rsp)
 296:	00 
 297:	48 89 44 24 18       	mov    %rax,0x18(%rsp)
 29c:	eb 86                	jmp    224 <_ZN4spin4once17Once$LT$T$C$R$GT$18try_call_once_slow17hfc8545fbb28b5208E+0x224>
 29e:	48 8b 44 24 18       	mov    0x18(%rsp),%rax
 2a3:	48 81 c4 f8 00 00 00 	add    $0xf8,%rsp
 2aa:	c3                   	ret
 2ab:	eb f1                	jmp    29e <_ZN4spin4once17Once$LT$T$C$R$GT$18try_call_once_slow17hfc8545fbb28b5208E+0x29e>

Disassembly of section .text._ZN4spin4once17Once$LT$T$C$R$GT$3get17h4d35a99c700f95cfE:

0000000000000000 <_ZN4spin4once17Once$LT$T$C$R$GT$3get17h4d35a99c700f95cfE>:
   0:	48 83 ec 38          	sub    $0x38,%rsp
   4:	48 89 7c 24 08       	mov    %rdi,0x8(%rsp)
   9:	48 89 7c 24 20       	mov    %rdi,0x20(%rsp)
   e:	48 83 c7 28          	add    $0x28,%rdi
  12:	c6 44 24 1f 02       	movb   $0x2,0x1f(%rsp)
  17:	8a 44 24 1f          	mov    0x1f(%rsp),%al
  1b:	48 89 7c 24 28       	mov    %rdi,0x28(%rsp)
  20:	88 44 24 37          	mov    %al,0x37(%rsp)
  24:	0f b6 f0             	movzbl %al,%esi
  27:	e8 00 00 00 00       	call   2c <_ZN4spin4once17Once$LT$T$C$R$GT$3get17h4d35a99c700f95cfE+0x2c>
  2c:	0f b6 f8             	movzbl %al,%edi
  2f:	e8 00 00 00 00       	call   34 <_ZN4spin4once17Once$LT$T$C$R$GT$3get17h4d35a99c700f95cfE+0x34>
  34:	88 44 24 1e          	mov    %al,0x1e(%rsp)
  38:	80 7c 24 1e 02       	cmpb   $0x2,0x1e(%rsp)
  3d:	75 11                	jne    50 <_ZN4spin4once17Once$LT$T$C$R$GT$3get17h4d35a99c700f95cfE+0x50>
  3f:	48 8b 7c 24 08       	mov    0x8(%rsp),%rdi
  44:	e8 00 00 00 00       	call   49 <_ZN4spin4once17Once$LT$T$C$R$GT$3get17h4d35a99c700f95cfE+0x49>
  49:	48 89 44 24 10       	mov    %rax,0x10(%rsp)
  4e:	eb 09                	jmp    59 <_ZN4spin4once17Once$LT$T$C$R$GT$3get17h4d35a99c700f95cfE+0x59>
  50:	48 c7 44 24 10 00 00 	movq   $0x0,0x10(%rsp)
  57:	00 00 
  59:	48 8b 44 24 10       	mov    0x10(%rsp),%rax
  5e:	48 83 c4 38          	add    $0x38,%rsp
  62:	c3                   	ret

Disassembly of section .text._ZN4spin4once17Once$LT$T$C$R$GT$3get17ha98c601a17786139E:

0000000000000000 <_ZN4spin4once17Once$LT$T$C$R$GT$3get17ha98c601a17786139E>:
   0:	48 83 ec 38          	sub    $0x38,%rsp
   4:	48 89 7c 24 08       	mov    %rdi,0x8(%rsp)
   9:	48 89 7c 24 20       	mov    %rdi,0x20(%rsp)
   e:	48 81 c7 00 10 00 00 	add    $0x1000,%rdi
  15:	c6 44 24 1f 02       	movb   $0x2,0x1f(%rsp)
  1a:	8a 44 24 1f          	mov    0x1f(%rsp),%al
  1e:	48 89 7c 24 28       	mov    %rdi,0x28(%rsp)
  23:	88 44 24 37          	mov    %al,0x37(%rsp)
  27:	0f b6 f0             	movzbl %al,%esi
  2a:	e8 00 00 00 00       	call   2f <_ZN4spin4once17Once$LT$T$C$R$GT$3get17ha98c601a17786139E+0x2f>
  2f:	0f b6 f8             	movzbl %al,%edi
  32:	e8 00 00 00 00       	call   37 <_ZN4spin4once17Once$LT$T$C$R$GT$3get17ha98c601a17786139E+0x37>
  37:	88 44 24 1e          	mov    %al,0x1e(%rsp)
  3b:	80 7c 24 1e 02       	cmpb   $0x2,0x1e(%rsp)
  40:	75 11                	jne    53 <_ZN4spin4once17Once$LT$T$C$R$GT$3get17ha98c601a17786139E+0x53>
  42:	48 8b 7c 24 08       	mov    0x8(%rsp),%rdi
  47:	e8 00 00 00 00       	call   4c <_ZN4spin4once17Once$LT$T$C$R$GT$3get17ha98c601a17786139E+0x4c>
  4c:	48 89 44 24 10       	mov    %rax,0x10(%rsp)
  51:	eb 09                	jmp    5c <_ZN4spin4once17Once$LT$T$C$R$GT$3get17ha98c601a17786139E+0x5c>
  53:	48 c7 44 24 10 00 00 	movq   $0x0,0x10(%rsp)
  5a:	00 00 
  5c:	48 8b 44 24 10       	mov    0x10(%rsp),%rax
  61:	48 83 c4 38          	add    $0x38,%rsp
  65:	c3                   	ret

Disassembly of section .text._ZN4spin4once17Once$LT$T$C$R$GT$4poll17h4dab6195cfc37a5cE:

0000000000000000 <_ZN4spin4once17Once$LT$T$C$R$GT$4poll17h4dab6195cfc37a5cE>:
   0:	48 83 ec 38          	sub    $0x38,%rsp
   4:	48 89 7c 24 08       	mov    %rdi,0x8(%rsp)
   9:	48 89 7c 24 20       	mov    %rdi,0x20(%rsp)
   e:	48 8b 7c 24 08       	mov    0x8(%rsp),%rdi
  13:	48 81 c7 00 10 00 00 	add    $0x1000,%rdi
  1a:	c6 44 24 1f 02       	movb   $0x2,0x1f(%rsp)
  1f:	0f b6 74 24 1f       	movzbl 0x1f(%rsp),%esi
  24:	40 88 f0             	mov    %sil,%al
  27:	48 89 7c 24 28       	mov    %rdi,0x28(%rsp)
  2c:	88 44 24 37          	mov    %al,0x37(%rsp)
  30:	e8 00 00 00 00       	call   35 <_ZN4spin4once17Once$LT$T$C$R$GT$4poll17h4dab6195cfc37a5cE+0x35>
  35:	0f b6 f8             	movzbl %al,%edi
  38:	e8 00 00 00 00       	call   3d <_ZN4spin4once17Once$LT$T$C$R$GT$4poll17h4dab6195cfc37a5cE+0x3d>
  3d:	88 44 24 1e          	mov    %al,0x1e(%rsp)
  41:	0f b6 44 24 1e       	movzbl 0x1e(%rsp),%eax
  46:	48 89 04 24          	mov    %rax,(%rsp)
  4a:	48 8b 04 24          	mov    (%rsp),%rax
  4e:	48 8d 0d 00 00 00 00 	lea    0x0(%rip),%rcx        # 55 <_ZN4spin4once17Once$LT$T$C$R$GT$4poll17h4dab6195cfc37a5cE+0x55>
  55:	48 63 04 81          	movslq (%rcx,%rax,4),%rax
  59:	48 01 c8             	add    %rcx,%rax
  5c:	ff e0                	jmp    *%rax
  5e:	0f 0b                	ud2
  60:	48 c7 44 24 10 00 00 	movq   $0x0,0x10(%rsp)
  67:	00 00 
  69:	eb 30                	jmp    9b <_ZN4spin4once17Once$LT$T$C$R$GT$4poll17h4dab6195cfc37a5cE+0x9b>
  6b:	e8 00 00 00 00       	call   70 <_ZN4spin4once17Once$LT$T$C$R$GT$4poll17h4dab6195cfc37a5cE+0x70>
  70:	eb 9c                	jmp    e <_ZN4spin4once17Once$LT$T$C$R$GT$4poll17h4dab6195cfc37a5cE+0xe>
  72:	48 8b 7c 24 08       	mov    0x8(%rsp),%rdi
  77:	e8 00 00 00 00       	call   7c <_ZN4spin4once17Once$LT$T$C$R$GT$4poll17h4dab6195cfc37a5cE+0x7c>
  7c:	48 89 44 24 10       	mov    %rax,0x10(%rsp)
  81:	eb 18                	jmp    9b <_ZN4spin4once17Once$LT$T$C$R$GT$4poll17h4dab6195cfc37a5cE+0x9b>
  83:	48 8d 3d 00 00 00 00 	lea    0x0(%rip),%rdi        # 8a <_ZN4spin4once17Once$LT$T$C$R$GT$4poll17h4dab6195cfc37a5cE+0x8a>
  8a:	48 8d 15 00 00 00 00 	lea    0x0(%rip),%rdx        # 91 <_ZN4spin4once17Once$LT$T$C$R$GT$4poll17h4dab6195cfc37a5cE+0x91>
  91:	be 26 00 00 00       	mov    $0x26,%esi
  96:	e8 00 00 00 00       	call   9b <_ZN4spin4once17Once$LT$T$C$R$GT$4poll17h4dab6195cfc37a5cE+0x9b>
  9b:	48 8b 44 24 10       	mov    0x10(%rsp),%rax
  a0:	48 83 c4 38          	add    $0x38,%rsp
  a4:	c3                   	ret

Disassembly of section .text._ZN4spin4once17Once$LT$T$C$R$GT$4poll17h63cb36563d71fcf6E:

0000000000000000 <_ZN4spin4once17Once$LT$T$C$R$GT$4poll17h63cb36563d71fcf6E>:
   0:	48 83 ec 38          	sub    $0x38,%rsp
   4:	48 89 7c 24 08       	mov    %rdi,0x8(%rsp)
   9:	48 89 7c 24 20       	mov    %rdi,0x20(%rsp)
   e:	48 8b 7c 24 08       	mov    0x8(%rsp),%rdi
  13:	48 83 c7 28          	add    $0x28,%rdi
  17:	c6 44 24 1f 02       	movb   $0x2,0x1f(%rsp)
  1c:	0f b6 74 24 1f       	movzbl 0x1f(%rsp),%esi
  21:	40 88 f0             	mov    %sil,%al
  24:	48 89 7c 24 28       	mov    %rdi,0x28(%rsp)
  29:	88 44 24 37          	mov    %al,0x37(%rsp)
  2d:	e8 00 00 00 00       	call   32 <_ZN4spin4once17Once$LT$T$C$R$GT$4poll17h63cb36563d71fcf6E+0x32>
  32:	0f b6 f8             	movzbl %al,%edi
  35:	e8 00 00 00 00       	call   3a <_ZN4spin4once17Once$LT$T$C$R$GT$4poll17h63cb36563d71fcf6E+0x3a>
  3a:	88 44 24 1e          	mov    %al,0x1e(%rsp)
  3e:	0f b6 44 24 1e       	movzbl 0x1e(%rsp),%eax
  43:	48 89 04 24          	mov    %rax,(%rsp)
  47:	48 8b 04 24          	mov    (%rsp),%rax
  4b:	48 8d 0d 00 00 00 00 	lea    0x0(%rip),%rcx        # 52 <_ZN4spin4once17Once$LT$T$C$R$GT$4poll17h63cb36563d71fcf6E+0x52>
  52:	48 63 04 81          	movslq (%rcx,%rax,4),%rax
  56:	48 01 c8             	add    %rcx,%rax
  59:	ff e0                	jmp    *%rax
  5b:	0f 0b                	ud2
  5d:	48 c7 44 24 10 00 00 	movq   $0x0,0x10(%rsp)
  64:	00 00 
  66:	eb 30                	jmp    98 <_ZN4spin4once17Once$LT$T$C$R$GT$4poll17h63cb36563d71fcf6E+0x98>
  68:	e8 00 00 00 00       	call   6d <_ZN4spin4once17Once$LT$T$C$R$GT$4poll17h63cb36563d71fcf6E+0x6d>
  6d:	eb 9f                	jmp    e <_ZN4spin4once17Once$LT$T$C$R$GT$4poll17h63cb36563d71fcf6E+0xe>
  6f:	48 8b 7c 24 08       	mov    0x8(%rsp),%rdi
  74:	e8 00 00 00 00       	call   79 <_ZN4spin4once17Once$LT$T$C$R$GT$4poll17h63cb36563d71fcf6E+0x79>
  79:	48 89 44 24 10       	mov    %rax,0x10(%rsp)
  7e:	eb 18                	jmp    98 <_ZN4spin4once17Once$LT$T$C$R$GT$4poll17h63cb36563d71fcf6E+0x98>
  80:	48 8d 3d 00 00 00 00 	lea    0x0(%rip),%rdi        # 87 <_ZN4spin4once17Once$LT$T$C$R$GT$4poll17h63cb36563d71fcf6E+0x87>
  87:	48 8d 15 00 00 00 00 	lea    0x0(%rip),%rdx        # 8e <_ZN4spin4once17Once$LT$T$C$R$GT$4poll17h63cb36563d71fcf6E+0x8e>
  8e:	be 26 00 00 00       	mov    $0x26,%esi
  93:	e8 00 00 00 00       	call   98 <_ZN4spin4once17Once$LT$T$C$R$GT$4poll17h63cb36563d71fcf6E+0x98>
  98:	48 8b 44 24 10       	mov    0x10(%rsp),%rax
  9d:	48 83 c4 38          	add    $0x38,%rsp
  a1:	c3                   	ret

Disassembly of section .text._ZN4spin4once17Once$LT$T$C$R$GT$9call_once17h6c30fd8ccddd1bd6E:

0000000000000000 <_ZN4spin4once17Once$LT$T$C$R$GT$9call_once17h6c30fd8ccddd1bd6E>:
   0:	48 83 ec 28          	sub    $0x28,%rsp
   4:	48 89 7c 24 10       	mov    %rdi,0x10(%rsp)
   9:	e8 00 00 00 00       	call   e <_ZN4spin4once17Once$LT$T$C$R$GT$9call_once17h6c30fd8ccddd1bd6E+0xe>
   e:	48 89 44 24 08       	mov    %rax,0x8(%rsp)
  13:	48 8b 44 24 08       	mov    0x8(%rsp),%rax
  18:	48 89 44 24 20       	mov    %rax,0x20(%rsp)
  1d:	48 83 c4 28          	add    $0x28,%rsp
  21:	c3                   	ret

Disassembly of section .text._ZN4spin4once17Once$LT$T$C$R$GT$9call_once17hc467edc895814644E:

0000000000000000 <_ZN4spin4once17Once$LT$T$C$R$GT$9call_once17hc467edc895814644E>:
   0:	48 83 ec 28          	sub    $0x28,%rsp
   4:	48 89 7c 24 10       	mov    %rdi,0x10(%rsp)
   9:	e8 00 00 00 00       	call   e <_ZN4spin4once17Once$LT$T$C$R$GT$9call_once17hc467edc895814644E+0xe>
   e:	48 89 44 24 08       	mov    %rax,0x8(%rsp)
  13:	48 8b 44 24 08       	mov    0x8(%rsp),%rax
  18:	48 89 44 24 20       	mov    %rax,0x20(%rsp)
  1d:	48 83 c4 28          	add    $0x28,%rsp
  21:	c3                   	ret

Disassembly of section .text._ZN4spin4once17Once$LT$T$C$R$GT$9call_once28_$u7b$$u7b$closure$u7d$$u7d$17h11ae6610d1bb0852E:

0000000000000000 <_ZN4spin4once17Once$LT$T$C$R$GT$9call_once28_$u7b$$u7b$closure$u7d$$u7d$17h11ae6610d1bb0852E>:
   0:	48 83 ec 48          	sub    $0x48,%rsp
   4:	48 89 7c 24 08       	mov    %rdi,0x8(%rsp)
   9:	48 89 7c 24 10       	mov    %rdi,0x10(%rsp)
   e:	48 8d 7c 24 18       	lea    0x18(%rsp),%rdi
  13:	e8 00 00 00 00       	call   18 <_ZN4spin4once17Once$LT$T$C$R$GT$9call_once28_$u7b$$u7b$closure$u7d$$u7d$17h11ae6610d1bb0852E+0x18>
  18:	48 8b 7c 24 08       	mov    0x8(%rsp),%rdi
  1d:	48 8d 74 24 18       	lea    0x18(%rsp),%rsi
  22:	ba 28 00 00 00       	mov    $0x28,%edx
  27:	e8 00 00 00 00       	call   2c <_ZN4spin4once17Once$LT$T$C$R$GT$9call_once28_$u7b$$u7b$closure$u7d$$u7d$17h11ae6610d1bb0852E+0x2c>
  2c:	48 8b 44 24 10       	mov    0x10(%rsp),%rax
  31:	48 83 c4 48          	add    $0x48,%rsp
  35:	c3                   	ret

Disassembly of section .text._ZN4spin4once17Once$LT$T$C$R$GT$9call_once28_$u7b$$u7b$closure$u7d$$u7d$17ha7e5119f9cb7085fE:

0000000000000000 <_ZN4spin4once17Once$LT$T$C$R$GT$9call_once28_$u7b$$u7b$closure$u7d$$u7d$17ha7e5119f9cb7085fE>:
   0:	48 81 ec 18 10 00 00 	sub    $0x1018,%rsp
   7:	48 89 3c 24          	mov    %rdi,(%rsp)
   b:	48 89 7c 24 08       	mov    %rdi,0x8(%rsp)
  10:	48 8d 7c 24 10       	lea    0x10(%rsp),%rdi
  15:	e8 00 00 00 00       	call   1a <_ZN4spin4once17Once$LT$T$C$R$GT$9call_once28_$u7b$$u7b$closure$u7d$$u7d$17ha7e5119f9cb7085fE+0x1a>
  1a:	48 8b 3c 24          	mov    (%rsp),%rdi
  1e:	48 8d 74 24 10       	lea    0x10(%rsp),%rsi
  23:	ba 00 10 00 00       	mov    $0x1000,%edx
  28:	e8 00 00 00 00       	call   2d <_ZN4spin4once17Once$LT$T$C$R$GT$9call_once28_$u7b$$u7b$closure$u7d$$u7d$17ha7e5119f9cb7085fE+0x2d>
  2d:	48 8b 44 24 08       	mov    0x8(%rsp),%rax
  32:	48 81 c4 18 10 00 00 	add    $0x1018,%rsp
  39:	c3                   	ret

Disassembly of section .text._ZN4spin4once17Once$LT$T$C$R$GT$9force_get17h598e5e2c057248a8E:

0000000000000000 <_ZN4spin4once17Once$LT$T$C$R$GT$9force_get17h598e5e2c057248a8E>:
   0:	48 83 ec 18          	sub    $0x18,%rsp
   4:	48 89 f8             	mov    %rdi,%rax
   7:	48 89 04 24          	mov    %rax,(%rsp)
   b:	48 89 44 24 10       	mov    %rax,0x10(%rsp)
  10:	48 89 44 24 08       	mov    %rax,0x8(%rsp)
  15:	48 83 c4 18          	add    $0x18,%rsp
  19:	c3                   	ret

Disassembly of section .text._ZN4spin4once17Once$LT$T$C$R$GT$9force_get17he59df5be2ba99371E:

0000000000000000 <_ZN4spin4once17Once$LT$T$C$R$GT$9force_get17he59df5be2ba99371E>:
   0:	48 83 ec 18          	sub    $0x18,%rsp
   4:	48 89 f8             	mov    %rdi,%rax
   7:	48 89 04 24          	mov    %rax,(%rsp)
   b:	48 89 44 24 10       	mov    %rax,0x10(%rsp)
  10:	48 89 44 24 08       	mov    %rax,0x8(%rsp)
  15:	48 83 c4 18          	add    $0x18,%rsp
  19:	c3                   	ret

kernel-9b89dc178204b098.ad9r5bqwv59emlyrq25gxvsgl.rcgu.o:     file format elf64-x86-64


Disassembly of section .text._ZN76_$LT$multiboot2..boot_information..LoadError$u20$as$u20$core..fmt..Debug$GT$3fmt17hcc90134ba2b9bc7dE:

0000000000000000 <_ZN76_$LT$multiboot2..boot_information..LoadError$u20$as$u20$core..fmt..Debug$GT$3fmt17hcc90134ba2b9bc7dE>:
   0:	48 83 ec 38          	sub    $0x38,%rsp
   4:	48 89 74 24 08       	mov    %rsi,0x8(%rsp)
   9:	48 89 7c 24 10       	mov    %rdi,0x10(%rsp)
   e:	48 89 7c 24 28       	mov    %rdi,0x28(%rsp)
  13:	48 89 74 24 30       	mov    %rsi,0x30(%rsp)
  18:	31 c0                	xor    %eax,%eax
  1a:	b9 01 00 00 00       	mov    $0x1,%ecx
  1f:	80 3f 05             	cmpb   $0x5,(%rdi)
  22:	48 0f 44 c1          	cmove  %rcx,%rax
  26:	48 83 f8 00          	cmp    $0x0,%rax
  2a:	75 34                	jne    60 <_ZN76_$LT$multiboot2..boot_information..LoadError$u20$as$u20$core..fmt..Debug$GT$3fmt17hcc90134ba2b9bc7dE+0x60>
  2c:	48 8b 7c 24 08       	mov    0x8(%rsp),%rdi
  31:	48 8b 44 24 10       	mov    0x10(%rsp),%rax
  36:	48 89 44 24 20       	mov    %rax,0x20(%rsp)
  3b:	48 8d 35 00 00 00 00 	lea    0x0(%rip),%rsi        # 42 <_ZN76_$LT$multiboot2..boot_information..LoadError$u20$as$u20$core..fmt..Debug$GT$3fmt17hcc90134ba2b9bc7dE+0x42>
  42:	ba 06 00 00 00       	mov    $0x6,%edx
  47:	48 8d 4c 24 20       	lea    0x20(%rsp),%rcx
  4c:	4c 8d 05 00 00 00 00 	lea    0x0(%rip),%r8        # 53 <_ZN76_$LT$multiboot2..boot_information..LoadError$u20$as$u20$core..fmt..Debug$GT$3fmt17hcc90134ba2b9bc7dE+0x53>
  53:	e8 00 00 00 00       	call   58 <_ZN76_$LT$multiboot2..boot_information..LoadError$u20$as$u20$core..fmt..Debug$GT$3fmt17hcc90134ba2b9bc7dE+0x58>
  58:	24 01                	and    $0x1,%al
  5a:	88 44 24 1f          	mov    %al,0x1f(%rsp)
  5e:	eb 1c                	jmp    7c <_ZN76_$LT$multiboot2..boot_information..LoadError$u20$as$u20$core..fmt..Debug$GT$3fmt17hcc90134ba2b9bc7dE+0x7c>
  60:	48 8b 7c 24 08       	mov    0x8(%rsp),%rdi
  65:	48 8d 35 00 00 00 00 	lea    0x0(%rip),%rsi        # 6c <_ZN76_$LT$multiboot2..boot_information..LoadError$u20$as$u20$core..fmt..Debug$GT$3fmt17hcc90134ba2b9bc7dE+0x6c>
  6c:	ba 08 00 00 00       	mov    $0x8,%edx
  71:	e8 00 00 00 00       	call   76 <_ZN76_$LT$multiboot2..boot_information..LoadError$u20$as$u20$core..fmt..Debug$GT$3fmt17hcc90134ba2b9bc7dE+0x76>
  76:	24 01                	and    $0x1,%al
  78:	88 44 24 1f          	mov    %al,0x1f(%rsp)
  7c:	8a 44 24 1f          	mov    0x1f(%rsp),%al
  80:	24 01                	and    $0x1,%al
  82:	48 83 c4 38          	add    $0x38,%rsp
  86:	c3                   	ret

kernel-9b89dc178204b098.az7c5f1ixvveo34e0hon9guzy.rcgu.o:     file format elf64-x86-64


Disassembly of section .text._ZN4core9core_arch3x864sse29_mm_pause17h771abc6f02c153caE:

0000000000000000 <_ZN4core9core_arch3x864sse29_mm_pause17h771abc6f02c153caE>:
   0:	f3 90                	pause
   2:	c3                   	ret

kernel-9b89dc178204b098.bpf018aqtyinelr9kgvs1qq5h.rcgu.o:     file format elf64-x86-64


Disassembly of section .text._ZN67_$LT$multiboot2_common..MemoryError$u20$as$u20$core..fmt..Debug$GT$3fmt17h99abf94a51496217E:

0000000000000000 <_ZN67_$LT$multiboot2_common..MemoryError$u20$as$u20$core..fmt..Debug$GT$3fmt17h99abf94a51496217E>:
   0:	48 83 ec 38          	sub    $0x38,%rsp
   4:	48 89 74 24 08       	mov    %rsi,0x8(%rsp)
   9:	48 89 7c 24 28       	mov    %rdi,0x28(%rsp)
   e:	48 89 74 24 30       	mov    %rsi,0x30(%rsp)
  13:	0f b6 07             	movzbl (%rdi),%eax
  16:	48 89 44 24 10       	mov    %rax,0x10(%rsp)
  1b:	48 8b 44 24 10       	mov    0x10(%rsp),%rax
  20:	48 8d 0d 00 00 00 00 	lea    0x0(%rip),%rcx        # 27 <_ZN67_$LT$multiboot2_common..MemoryError$u20$as$u20$core..fmt..Debug$GT$3fmt17h99abf94a51496217E+0x27>
  27:	48 63 04 81          	movslq (%rcx,%rax,4),%rax
  2b:	48 01 c8             	add    %rcx,%rax
  2e:	ff e0                	jmp    *%rax
  30:	0f 0b                	ud2
  32:	48 8d 05 00 00 00 00 	lea    0x0(%rip),%rax        # 39 <_ZN67_$LT$multiboot2_common..MemoryError$u20$as$u20$core..fmt..Debug$GT$3fmt17h99abf94a51496217E+0x39>
  39:	48 89 44 24 18       	mov    %rax,0x18(%rsp)
  3e:	48 c7 44 24 20 04 00 	movq   $0x4,0x20(%rsp)
  45:	00 00 
  47:	eb 5a                	jmp    a3 <_ZN67_$LT$multiboot2_common..MemoryError$u20$as$u20$core..fmt..Debug$GT$3fmt17h99abf94a51496217E+0xa3>
  49:	48 8d 05 00 00 00 00 	lea    0x0(%rip),%rax        # 50 <_ZN67_$LT$multiboot2_common..MemoryError$u20$as$u20$core..fmt..Debug$GT$3fmt17h99abf94a51496217E+0x50>
  50:	48 89 44 24 18       	mov    %rax,0x18(%rsp)
  55:	48 c7 44 24 20 0e 00 	movq   $0xe,0x20(%rsp)
  5c:	00 00 
  5e:	eb 43                	jmp    a3 <_ZN67_$LT$multiboot2_common..MemoryError$u20$as$u20$core..fmt..Debug$GT$3fmt17h99abf94a51496217E+0xa3>
  60:	48 8d 05 00 00 00 00 	lea    0x0(%rip),%rax        # 67 <_ZN67_$LT$multiboot2_common..MemoryError$u20$as$u20$core..fmt..Debug$GT$3fmt17h99abf94a51496217E+0x67>
  67:	48 89 44 24 18       	mov    %rax,0x18(%rsp)
  6c:	48 c7 44 24 20 11 00 	movq   $0x11,0x20(%rsp)
  73:	00 00 
  75:	eb 2c                	jmp    a3 <_ZN67_$LT$multiboot2_common..MemoryError$u20$as$u20$core..fmt..Debug$GT$3fmt17h99abf94a51496217E+0xa3>
  77:	48 8d 05 00 00 00 00 	lea    0x0(%rip),%rax        # 7e <_ZN67_$LT$multiboot2_common..MemoryError$u20$as$u20$core..fmt..Debug$GT$3fmt17h99abf94a51496217E+0x7e>
  7e:	48 89 44 24 18       	mov    %rax,0x18(%rsp)
  83:	48 c7 44 24 20 0e 00 	movq   $0xe,0x20(%rsp)
  8a:	00 00 
  8c:	eb 15                	jmp    a3 <_ZN67_$LT$multiboot2_common..MemoryError$u20$as$u20$core..fmt..Debug$GT$3fmt17h99abf94a51496217E+0xa3>
  8e:	48 8d 05 00 00 00 00 	lea    0x0(%rip),%rax        # 95 <_ZN67_$LT$multiboot2_common..MemoryError$u20$as$u20$core..fmt..Debug$GT$3fmt17h99abf94a51496217E+0x95>
  95:	48 89 44 24 18       	mov    %rax,0x18(%rsp)
  9a:	48 c7 44 24 20 18 00 	movq   $0x18,0x20(%rsp)
  a1:	00 00 
  a3:	48 8b 7c 24 08       	mov    0x8(%rsp),%rdi
  a8:	48 8b 74 24 18       	mov    0x18(%rsp),%rsi
  ad:	48 8b 54 24 20       	mov    0x20(%rsp),%rdx
  b2:	e8 00 00 00 00       	call   b7 <_ZN67_$LT$multiboot2_common..MemoryError$u20$as$u20$core..fmt..Debug$GT$3fmt17h99abf94a51496217E+0xb7>
  b7:	24 01                	and    $0x1,%al
  b9:	48 83 c4 38          	add    $0x38,%rsp
  bd:	c3                   	ret

kernel-9b89dc178204b098.cpg2sevcq9fz0lj7iwlvg5vgz.rcgu.o:     file format elf64-x86-64


Disassembly of section .text._ZN4core5slice4iter87_$LT$impl$u20$core..iter..traits..collect..IntoIterator$u20$for$u20$$RF$$u5b$T$u5d$$GT$9into_iter17h0f96161e3f42b9d1E:

0000000000000000 <_ZN4core5slice4iter87_$LT$impl$u20$core..iter..traits..collect..IntoIterator$u20$for$u20$$RF$$u5b$T$u5d$$GT$9into_iter17h0f96161e3f42b9d1E>:
   0:	48 83 ec 18          	sub    $0x18,%rsp
   4:	48 89 7c 24 08       	mov    %rdi,0x8(%rsp)
   9:	48 89 74 24 10       	mov    %rsi,0x10(%rsp)
   e:	e8 00 00 00 00       	call   13 <_ZN4core5slice4iter87_$LT$impl$u20$core..iter..traits..collect..IntoIterator$u20$for$u20$$RF$$u5b$T$u5d$$GT$9into_iter17h0f96161e3f42b9d1E+0x13>
  13:	48 83 c4 18          	add    $0x18,%rsp
  17:	c3                   	ret

kernel-9b89dc178204b098.cwo5d4xpirzoue10xnlcdzbwx.rcgu.o:     file format elf64-x86-64


Disassembly of section .text._ZN81_$LT$core..str..iter..Chars$u20$as$u20$core..iter..traits..iterator..Iterator$GT$4next17h3c9aab1bbbe1072aE:

0000000000000000 <_ZN81_$LT$core..str..iter..Chars$u20$as$u20$core..iter..traits..iterator..Iterator$GT$4next17h3c9aab1bbbe1072aE>:
   0:	50                   	push   %rax
   1:	48 89 3c 24          	mov    %rdi,(%rsp)
   5:	e8 00 00 00 00       	call   a <_ZN81_$LT$core..str..iter..Chars$u20$as$u20$core..iter..traits..iterator..Iterator$GT$4next17h3c9aab1bbbe1072aE+0xa>
   a:	89 c7                	mov    %eax,%edi
   c:	89 d6                	mov    %edx,%esi
   e:	e8 00 00 00 00       	call   13 <_ZN81_$LT$core..str..iter..Chars$u20$as$u20$core..iter..traits..iterator..Iterator$GT$4next17h3c9aab1bbbe1072aE+0x13>
  13:	59                   	pop    %rcx
  14:	c3                   	ret

kernel-9b89dc178204b098.d6fhxyu9hdi2jncpjufy5vdo1.rcgu.o:     file format elf64-x86-64


Disassembly of section .text._ZN4core3ptr13read_volatile17hc35446547dcbb7a6E:

0000000000000000 <_ZN4core3ptr13read_volatile17hc35446547dcbb7a6E>:
   0:	48 83 ec 18          	sub    $0x18,%rsp
   4:	48 89 3c 24          	mov    %rdi,(%rsp)
   8:	48 89 7c 24 08       	mov    %rdi,0x8(%rsp)
   d:	e8 00 00 00 00       	call   12 <_ZN4core3ptr13read_volatile17hc35446547dcbb7a6E+0x12>
  12:	a8 01                	test   $0x1,%al
  14:	75 1e                	jne    34 <_ZN4core3ptr13read_volatile17hc35446547dcbb7a6E+0x34>
  16:	48 8b 0c 24          	mov    (%rsp),%rcx
  1a:	8a 01                	mov    (%rcx),%al
  1c:	8a 49 01             	mov    0x1(%rcx),%cl
  1f:	88 4c 24 17          	mov    %cl,0x17(%rsp)
  23:	88 44 24 16          	mov    %al,0x16(%rsp)
  27:	8a 44 24 16          	mov    0x16(%rsp),%al
  2b:	8a 54 24 17          	mov    0x17(%rsp),%dl
  2f:	48 83 c4 18          	add    $0x18,%rsp
  33:	c3                   	ret
  34:	48 8b 3c 24          	mov    (%rsp),%rdi
  38:	be 01 00 00 00       	mov    $0x1,%esi
  3d:	e8 00 00 00 00       	call   42 <_ZN4core3ptr13read_volatile17hc35446547dcbb7a6E+0x42>
  42:	eb d2                	jmp    16 <_ZN4core3ptr13read_volatile17hc35446547dcbb7a6E+0x16>

Disassembly of section .text._ZN4core3ptr14write_volatile17h20d6aa04cd18359cE:

0000000000000000 <_ZN4core3ptr14write_volatile17h20d6aa04cd18359cE>:
   0:	48 83 ec 28          	sub    $0x28,%rsp
   4:	48 89 7c 24 08       	mov    %rdi,0x8(%rsp)
   9:	88 d0                	mov    %dl,%al
   b:	88 44 24 16          	mov    %al,0x16(%rsp)
   f:	40 88 f1             	mov    %sil,%cl
  12:	88 4c 24 17          	mov    %cl,0x17(%rsp)
  16:	48 89 7c 24 18       	mov    %rdi,0x18(%rsp)
  1b:	88 4c 24 26          	mov    %cl,0x26(%rsp)
  1f:	88 44 24 27          	mov    %al,0x27(%rsp)
  23:	e8 00 00 00 00       	call   28 <_ZN4core3ptr14write_volatile17h20d6aa04cd18359cE+0x28>
  28:	a8 01                	test   $0x1,%al
  2a:	75 17                	jne    43 <_ZN4core3ptr14write_volatile17h20d6aa04cd18359cE+0x43>
  2c:	48 8b 44 24 08       	mov    0x8(%rsp),%rax
  31:	8a 4c 24 16          	mov    0x16(%rsp),%cl
  35:	8a 54 24 17          	mov    0x17(%rsp),%dl
  39:	88 10                	mov    %dl,(%rax)
  3b:	88 48 01             	mov    %cl,0x1(%rax)
  3e:	48 83 c4 28          	add    $0x28,%rsp
  42:	c3                   	ret
  43:	48 8b 7c 24 08       	mov    0x8(%rsp),%rdi
  48:	be 01 00 00 00       	mov    $0x1,%esi
  4d:	e8 00 00 00 00       	call   52 <_ZN4core3ptr14write_volatile17h20d6aa04cd18359cE+0x52>
  52:	eb d8                	jmp    2c <_ZN4core3ptr14write_volatile17h20d6aa04cd18359cE+0x2c>

Disassembly of section .text._ZN4core3ptr5write17hd01474bb68773c55E:

0000000000000000 <_ZN4core3ptr5write17hd01474bb68773c55E>:
   0:	48 83 ec 18          	sub    $0x18,%rsp
   4:	48 89 34 24          	mov    %rsi,(%rsp)
   8:	48 89 7c 24 08       	mov    %rdi,0x8(%rsp)
   d:	48 89 7c 24 10       	mov    %rdi,0x10(%rsp)
  12:	e8 00 00 00 00       	call   17 <_ZN4core3ptr5write17hd01474bb68773c55E+0x17>
  17:	a8 01                	test   $0x1,%al
  19:	75 18                	jne    33 <_ZN4core3ptr5write17hd01474bb68773c55E+0x33>
  1b:	48 8b 34 24          	mov    (%rsp),%rsi
  1f:	48 8b 7c 24 08       	mov    0x8(%rsp),%rdi
  24:	ba 00 10 00 00       	mov    $0x1000,%edx
  29:	e8 00 00 00 00       	call   2e <_ZN4core3ptr5write17hd01474bb68773c55E+0x2e>
  2e:	48 83 c4 18          	add    $0x18,%rsp
  32:	c3                   	ret
  33:	48 8b 7c 24 08       	mov    0x8(%rsp),%rdi
  38:	be 10 00 00 00       	mov    $0x10,%esi
  3d:	e8 00 00 00 00       	call   42 <_ZN4core3ptr5write17hd01474bb68773c55E+0x42>
  42:	eb d7                	jmp    1b <_ZN4core3ptr5write17hd01474bb68773c55E+0x1b>

Disassembly of section .text._ZN4core3ptr5write17hf19ac975d329700dE:

0000000000000000 <_ZN4core3ptr5write17hf19ac975d329700dE>:
   0:	48 83 ec 18          	sub    $0x18,%rsp
   4:	48 89 34 24          	mov    %rsi,(%rsp)
   8:	48 89 7c 24 08       	mov    %rdi,0x8(%rsp)
   d:	48 89 7c 24 10       	mov    %rdi,0x10(%rsp)
  12:	e8 00 00 00 00       	call   17 <_ZN4core3ptr5write17hf19ac975d329700dE+0x17>
  17:	a8 01                	test   $0x1,%al
  19:	75 18                	jne    33 <_ZN4core3ptr5write17hf19ac975d329700dE+0x33>
  1b:	48 8b 34 24          	mov    (%rsp),%rsi
  1f:	48 8b 7c 24 08       	mov    0x8(%rsp),%rdi
  24:	ba 28 00 00 00       	mov    $0x28,%edx
  29:	e8 00 00 00 00       	call   2e <_ZN4core3ptr5write17hf19ac975d329700dE+0x2e>
  2e:	48 83 c4 18          	add    $0x18,%rsp
  32:	c3                   	ret
  33:	48 8b 7c 24 08       	mov    0x8(%rsp),%rdi
  38:	be 08 00 00 00       	mov    $0x8,%esi
  3d:	e8 00 00 00 00       	call   42 <_ZN4core3ptr5write17hf19ac975d329700dE+0x42>
  42:	eb d7                	jmp    1b <_ZN4core3ptr5write17hf19ac975d329700dE+0x1b>

kernel-9b89dc178204b098.dfxgmsxmwjjuy2bzo9x64ql8f.rcgu.o:     file format elf64-x86-64


Disassembly of section .text._ZN4core4sync6atomic23atomic_compare_exchange17h31516c81fe2d60c4E:

0000000000000000 <_ZN4core4sync6atomic23atomic_compare_exchange17h31516c81fe2d60c4E>:
   0:	48 81 ec d8 00 00 00 	sub    $0xd8,%rsp
   7:	48 89 7c 24 48       	mov    %rdi,0x48(%rsp)
   c:	44 88 c0             	mov    %r8b,%al
   f:	88 54 24 56          	mov    %dl,0x56(%rsp)
  13:	40 88 74 24 57       	mov    %sil,0x57(%rsp)
  18:	48 89 bc 24 c8 00 00 	mov    %rdi,0xc8(%rsp)
  1f:	00 
  20:	40 88 b4 24 d2 00 00 	mov    %sil,0xd2(%rsp)
  27:	00 
  28:	88 94 24 d3 00 00 00 	mov    %dl,0xd3(%rsp)
  2f:	88 8c 24 d4 00 00 00 	mov    %cl,0xd4(%rsp)
  36:	88 84 24 d5 00 00 00 	mov    %al,0xd5(%rsp)
  3d:	88 4c 24 66          	mov    %cl,0x66(%rsp)
  41:	88 44 24 67          	mov    %al,0x67(%rsp)
  45:	0f b6 44 24 66       	movzbl 0x66(%rsp),%eax
  4a:	48 89 44 24 58       	mov    %rax,0x58(%rsp)
  4f:	48 8b 44 24 58       	mov    0x58(%rsp),%rax
  54:	48 8d 0d 00 00 00 00 	lea    0x0(%rip),%rcx        # 5b <_ZN4core4sync6atomic23atomic_compare_exchange17h31516c81fe2d60c4E+0x5b>
  5b:	48 63 04 81          	movslq (%rcx,%rax,4),%rax
  5f:	48 01 c8             	add    %rcx,%rax
  62:	ff e0                	jmp    *%rax
  64:	0f 0b                	ud2
  66:	0f b6 44 24 67       	movzbl 0x67(%rsp),%eax
  6b:	48 89 44 24 40       	mov    %rax,0x40(%rsp)
  70:	48 85 c0             	test   %rax,%rax
  73:	0f 84 1a 01 00 00    	je     193 <_ZN4core4sync6atomic23atomic_compare_exchange17h31516c81fe2d60c4E+0x193>
  79:	eb 00                	jmp    7b <_ZN4core4sync6atomic23atomic_compare_exchange17h31516c81fe2d60c4E+0x7b>
  7b:	48 8b 44 24 40       	mov    0x40(%rsp),%rax
  80:	48 83 e8 02          	sub    $0x2,%rax
  84:	0f 84 2b 01 00 00    	je     1b5 <_ZN4core4sync6atomic23atomic_compare_exchange17h31516c81fe2d60c4E+0x1b5>
  8a:	eb 00                	jmp    8c <_ZN4core4sync6atomic23atomic_compare_exchange17h31516c81fe2d60c4E+0x8c>
  8c:	48 8b 44 24 40       	mov    0x40(%rsp),%rax
  91:	48 83 e8 04          	sub    $0x4,%rax
  95:	0f 84 3c 01 00 00    	je     1d7 <_ZN4core4sync6atomic23atomic_compare_exchange17h31516c81fe2d60c4E+0x1d7>
  9b:	e9 df 00 00 00       	jmp    17f <_ZN4core4sync6atomic23atomic_compare_exchange17h31516c81fe2d60c4E+0x17f>
  a0:	0f b6 44 24 67       	movzbl 0x67(%rsp),%eax
  a5:	48 89 44 24 38       	mov    %rax,0x38(%rsp)
  aa:	48 85 c0             	test   %rax,%rax
  ad:	0f 84 70 01 00 00    	je     223 <_ZN4core4sync6atomic23atomic_compare_exchange17h31516c81fe2d60c4E+0x223>
  b3:	eb 00                	jmp    b5 <_ZN4core4sync6atomic23atomic_compare_exchange17h31516c81fe2d60c4E+0xb5>
  b5:	48 8b 44 24 38       	mov    0x38(%rsp),%rax
  ba:	48 83 e8 02          	sub    $0x2,%rax
  be:	0f 84 81 01 00 00    	je     245 <_ZN4core4sync6atomic23atomic_compare_exchange17h31516c81fe2d60c4E+0x245>
  c4:	eb 00                	jmp    c6 <_ZN4core4sync6atomic23atomic_compare_exchange17h31516c81fe2d60c4E+0xc6>
  c6:	48 8b 44 24 38       	mov    0x38(%rsp),%rax
  cb:	48 83 e8 04          	sub    $0x4,%rax
  cf:	0f 84 92 01 00 00    	je     267 <_ZN4core4sync6atomic23atomic_compare_exchange17h31516c81fe2d60c4E+0x267>
  d5:	e9 a5 00 00 00       	jmp    17f <_ZN4core4sync6atomic23atomic_compare_exchange17h31516c81fe2d60c4E+0x17f>
  da:	0f b6 44 24 67       	movzbl 0x67(%rsp),%eax
  df:	48 89 44 24 30       	mov    %rax,0x30(%rsp)
  e4:	48 85 c0             	test   %rax,%rax
  e7:	0f 84 9f 01 00 00    	je     28c <_ZN4core4sync6atomic23atomic_compare_exchange17h31516c81fe2d60c4E+0x28c>
  ed:	eb 00                	jmp    ef <_ZN4core4sync6atomic23atomic_compare_exchange17h31516c81fe2d60c4E+0xef>
  ef:	48 8b 44 24 30       	mov    0x30(%rsp),%rax
  f4:	48 83 e8 02          	sub    $0x2,%rax
  f8:	0f 84 b3 01 00 00    	je     2b1 <_ZN4core4sync6atomic23atomic_compare_exchange17h31516c81fe2d60c4E+0x2b1>
  fe:	eb 00                	jmp    100 <_ZN4core4sync6atomic23atomic_compare_exchange17h31516c81fe2d60c4E+0x100>
 100:	48 8b 44 24 30       	mov    0x30(%rsp),%rax
 105:	48 83 e8 04          	sub    $0x4,%rax
 109:	0f 84 c7 01 00 00    	je     2d6 <_ZN4core4sync6atomic23atomic_compare_exchange17h31516c81fe2d60c4E+0x2d6>
 10f:	eb 6e                	jmp    17f <_ZN4core4sync6atomic23atomic_compare_exchange17h31516c81fe2d60c4E+0x17f>
 111:	0f b6 44 24 67       	movzbl 0x67(%rsp),%eax
 116:	48 89 44 24 28       	mov    %rax,0x28(%rsp)
 11b:	48 85 c0             	test   %rax,%rax
 11e:	0f 84 d7 01 00 00    	je     2fb <_ZN4core4sync6atomic23atomic_compare_exchange17h31516c81fe2d60c4E+0x2fb>
 124:	eb 00                	jmp    126 <_ZN4core4sync6atomic23atomic_compare_exchange17h31516c81fe2d60c4E+0x126>
 126:	48 8b 44 24 28       	mov    0x28(%rsp),%rax
 12b:	48 83 e8 02          	sub    $0x2,%rax
 12f:	0f 84 eb 01 00 00    	je     320 <_ZN4core4sync6atomic23atomic_compare_exchange17h31516c81fe2d60c4E+0x320>
 135:	eb 00                	jmp    137 <_ZN4core4sync6atomic23atomic_compare_exchange17h31516c81fe2d60c4E+0x137>
 137:	48 8b 44 24 28       	mov    0x28(%rsp),%rax
 13c:	48 83 e8 04          	sub    $0x4,%rax
 140:	0f 84 ff 01 00 00    	je     345 <_ZN4core4sync6atomic23atomic_compare_exchange17h31516c81fe2d60c4E+0x345>
 146:	eb 37                	jmp    17f <_ZN4core4sync6atomic23atomic_compare_exchange17h31516c81fe2d60c4E+0x17f>
 148:	0f b6 44 24 67       	movzbl 0x67(%rsp),%eax
 14d:	48 89 44 24 20       	mov    %rax,0x20(%rsp)
 152:	48 85 c0             	test   %rax,%rax
 155:	0f 84 0f 02 00 00    	je     36a <_ZN4core4sync6atomic23atomic_compare_exchange17h31516c81fe2d60c4E+0x36a>
 15b:	eb 00                	jmp    15d <_ZN4core4sync6atomic23atomic_compare_exchange17h31516c81fe2d60c4E+0x15d>
 15d:	48 8b 44 24 20       	mov    0x20(%rsp),%rax
 162:	48 83 e8 02          	sub    $0x2,%rax
 166:	0f 84 23 02 00 00    	je     38f <_ZN4core4sync6atomic23atomic_compare_exchange17h31516c81fe2d60c4E+0x38f>
 16c:	eb 00                	jmp    16e <_ZN4core4sync6atomic23atomic_compare_exchange17h31516c81fe2d60c4E+0x16e>
 16e:	48 8b 44 24 20       	mov    0x20(%rsp),%rax
 173:	48 83 e8 04          	sub    $0x4,%rax
 177:	0f 84 37 02 00 00    	je     3b4 <_ZN4core4sync6atomic23atomic_compare_exchange17h31516c81fe2d60c4E+0x3b4>
 17d:	eb 00                	jmp    17f <_ZN4core4sync6atomic23atomic_compare_exchange17h31516c81fe2d60c4E+0x17f>
 17f:	0f b6 44 24 67       	movzbl 0x67(%rsp),%eax
 184:	48 83 f8 01          	cmp    $0x1,%rax
 188:	0f 84 77 02 00 00    	je     405 <_ZN4core4sync6atomic23atomic_compare_exchange17h31516c81fe2d60c4E+0x405>
 18e:	e9 9c 02 00 00       	jmp    42f <_ZN4core4sync6atomic23atomic_compare_exchange17h31516c81fe2d60c4E+0x42f>
 193:	48 8b 4c 24 48       	mov    0x48(%rsp),%rcx
 198:	8a 54 24 56          	mov    0x56(%rsp),%dl
 19c:	8a 44 24 57          	mov    0x57(%rsp),%al
 1a0:	f0 0f b0 11          	lock cmpxchg %dl,(%rcx)
 1a4:	88 c1                	mov    %al,%cl
 1a6:	0f 94 c0             	sete   %al
 1a9:	24 01                	and    $0x1,%al
 1ab:	88 4c 24 64          	mov    %cl,0x64(%rsp)
 1af:	88 44 24 65          	mov    %al,0x65(%rsp)
 1b3:	eb 42                	jmp    1f7 <_ZN4core4sync6atomic23atomic_compare_exchange17h31516c81fe2d60c4E+0x1f7>
 1b5:	48 8b 4c 24 48       	mov    0x48(%rsp),%rcx
 1ba:	8a 54 24 56          	mov    0x56(%rsp),%dl
 1be:	8a 44 24 57          	mov    0x57(%rsp),%al
 1c2:	f0 0f b0 11          	lock cmpxchg %dl,(%rcx)
 1c6:	88 c1                	mov    %al,%cl
 1c8:	0f 94 c0             	sete   %al
 1cb:	24 01                	and    $0x1,%al
 1cd:	88 4c 24 64          	mov    %cl,0x64(%rsp)
 1d1:	88 44 24 65          	mov    %al,0x65(%rsp)
 1d5:	eb 20                	jmp    1f7 <_ZN4core4sync6atomic23atomic_compare_exchange17h31516c81fe2d60c4E+0x1f7>
 1d7:	48 8b 4c 24 48       	mov    0x48(%rsp),%rcx
 1dc:	8a 54 24 56          	mov    0x56(%rsp),%dl
 1e0:	8a 44 24 57          	mov    0x57(%rsp),%al
 1e4:	f0 0f b0 11          	lock cmpxchg %dl,(%rcx)
 1e8:	88 c1                	mov    %al,%cl
 1ea:	0f 94 c0             	sete   %al
 1ed:	24 01                	and    $0x1,%al
 1ef:	88 4c 24 64          	mov    %cl,0x64(%rsp)
 1f3:	88 44 24 65          	mov    %al,0x65(%rsp)
 1f7:	8a 44 24 64          	mov    0x64(%rsp),%al
 1fb:	88 44 24 1f          	mov    %al,0x1f(%rsp)
 1ff:	88 84 24 d6 00 00 00 	mov    %al,0xd6(%rsp)
 206:	8a 44 24 65          	mov    0x65(%rsp),%al
 20a:	88 c1                	mov    %al,%cl
 20c:	80 e1 01             	and    $0x1,%cl
 20f:	88 8c 24 d7 00 00 00 	mov    %cl,0xd7(%rsp)
 216:	a8 01                	test   $0x1,%al
 218:	0f 85 ca 01 00 00    	jne    3e8 <_ZN4core4sync6atomic23atomic_compare_exchange17h31516c81fe2d60c4E+0x3e8>
 21e:	e9 b6 01 00 00       	jmp    3d9 <_ZN4core4sync6atomic23atomic_compare_exchange17h31516c81fe2d60c4E+0x3d9>
 223:	48 8b 4c 24 48       	mov    0x48(%rsp),%rcx
 228:	8a 54 24 56          	mov    0x56(%rsp),%dl
 22c:	8a 44 24 57          	mov    0x57(%rsp),%al
 230:	f0 0f b0 11          	lock cmpxchg %dl,(%rcx)
 234:	88 c1                	mov    %al,%cl
 236:	0f 94 c0             	sete   %al
 239:	24 01                	and    $0x1,%al
 23b:	88 4c 24 64          	mov    %cl,0x64(%rsp)
 23f:	88 44 24 65          	mov    %al,0x65(%rsp)
 243:	eb b2                	jmp    1f7 <_ZN4core4sync6atomic23atomic_compare_exchange17h31516c81fe2d60c4E+0x1f7>
 245:	48 8b 4c 24 48       	mov    0x48(%rsp),%rcx
 24a:	8a 54 24 56          	mov    0x56(%rsp),%dl
 24e:	8a 44 24 57          	mov    0x57(%rsp),%al
 252:	f0 0f b0 11          	lock cmpxchg %dl,(%rcx)
 256:	88 c1                	mov    %al,%cl
 258:	0f 94 c0             	sete   %al
 25b:	24 01                	and    $0x1,%al
 25d:	88 4c 24 64          	mov    %cl,0x64(%rsp)
 261:	88 44 24 65          	mov    %al,0x65(%rsp)
 265:	eb 90                	jmp    1f7 <_ZN4core4sync6atomic23atomic_compare_exchange17h31516c81fe2d60c4E+0x1f7>
 267:	48 8b 4c 24 48       	mov    0x48(%rsp),%rcx
 26c:	8a 54 24 56          	mov    0x56(%rsp),%dl
 270:	8a 44 24 57          	mov    0x57(%rsp),%al
 274:	f0 0f b0 11          	lock cmpxchg %dl,(%rcx)
 278:	88 c1                	mov    %al,%cl
 27a:	0f 94 c0             	sete   %al
 27d:	24 01                	and    $0x1,%al
 27f:	88 4c 24 64          	mov    %cl,0x64(%rsp)
 283:	88 44 24 65          	mov    %al,0x65(%rsp)
 287:	e9 6b ff ff ff       	jmp    1f7 <_ZN4core4sync6atomic23atomic_compare_exchange17h31516c81fe2d60c4E+0x1f7>
 28c:	48 8b 4c 24 48       	mov    0x48(%rsp),%rcx
 291:	8a 54 24 56          	mov    0x56(%rsp),%dl
 295:	8a 44 24 57          	mov    0x57(%rsp),%al
 299:	f0 0f b0 11          	lock cmpxchg %dl,(%rcx)
 29d:	88 c1                	mov    %al,%cl
 29f:	0f 94 c0             	sete   %al
 2a2:	24 01                	and    $0x1,%al
 2a4:	88 4c 24 64          	mov    %cl,0x64(%rsp)
 2a8:	88 44 24 65          	mov    %al,0x65(%rsp)
 2ac:	e9 46 ff ff ff       	jmp    1f7 <_ZN4core4sync6atomic23atomic_compare_exchange17h31516c81fe2d60c4E+0x1f7>
 2b1:	48 8b 4c 24 48       	mov    0x48(%rsp),%rcx
 2b6:	8a 54 24 56          	mov    0x56(%rsp),%dl
 2ba:	8a 44 24 57          	mov    0x57(%rsp),%al
 2be:	f0 0f b0 11          	lock cmpxchg %dl,(%rcx)
 2c2:	88 c1                	mov    %al,%cl
 2c4:	0f 94 c0             	sete   %al
 2c7:	24 01                	and    $0x1,%al
 2c9:	88 4c 24 64          	mov    %cl,0x64(%rsp)
 2cd:	88 44 24 65          	mov    %al,0x65(%rsp)
 2d1:	e9 21 ff ff ff       	jmp    1f7 <_ZN4core4sync6atomic23atomic_compare_exchange17h31516c81fe2d60c4E+0x1f7>
 2d6:	48 8b 4c 24 48       	mov    0x48(%rsp),%rcx
 2db:	8a 54 24 56          	mov    0x56(%rsp),%dl
 2df:	8a 44 24 57          	mov    0x57(%rsp),%al
 2e3:	f0 0f b0 11          	lock cmpxchg %dl,(%rcx)
 2e7:	88 c1                	mov    %al,%cl
 2e9:	0f 94 c0             	sete   %al
 2ec:	24 01                	and    $0x1,%al
 2ee:	88 4c 24 64          	mov    %cl,0x64(%rsp)
 2f2:	88 44 24 65          	mov    %al,0x65(%rsp)
 2f6:	e9 fc fe ff ff       	jmp    1f7 <_ZN4core4sync6atomic23atomic_compare_exchange17h31516c81fe2d60c4E+0x1f7>
 2fb:	48 8b 4c 24 48       	mov    0x48(%rsp),%rcx
 300:	8a 54 24 56          	mov    0x56(%rsp),%dl
 304:	8a 44 24 57          	mov    0x57(%rsp),%al
 308:	f0 0f b0 11          	lock cmpxchg %dl,(%rcx)
 30c:	88 c1                	mov    %al,%cl
 30e:	0f 94 c0             	sete   %al
 311:	24 01                	and    $0x1,%al
 313:	88 4c 24 64          	mov    %cl,0x64(%rsp)
 317:	88 44 24 65          	mov    %al,0x65(%rsp)
 31b:	e9 d7 fe ff ff       	jmp    1f7 <_ZN4core4sync6atomic23atomic_compare_exchange17h31516c81fe2d60c4E+0x1f7>
 320:	48 8b 4c 24 48       	mov    0x48(%rsp),%rcx
 325:	8a 54 24 56          	mov    0x56(%rsp),%dl
 329:	8a 44 24 57          	mov    0x57(%rsp),%al
 32d:	f0 0f b0 11          	lock cmpxchg %dl,(%rcx)
 331:	88 c1                	mov    %al,%cl
 333:	0f 94 c0             	sete   %al
 336:	24 01                	and    $0x1,%al
 338:	88 4c 24 64          	mov    %cl,0x64(%rsp)
 33c:	88 44 24 65          	mov    %al,0x65(%rsp)
 340:	e9 b2 fe ff ff       	jmp    1f7 <_ZN4core4sync6atomic23atomic_compare_exchange17h31516c81fe2d60c4E+0x1f7>
 345:	48 8b 4c 24 48       	mov    0x48(%rsp),%rcx
 34a:	8a 54 24 56          	mov    0x56(%rsp),%dl
 34e:	8a 44 24 57          	mov    0x57(%rsp),%al
 352:	f0 0f b0 11          	lock cmpxchg %dl,(%rcx)
 356:	88 c1                	mov    %al,%cl
 358:	0f 94 c0             	sete   %al
 35b:	24 01                	and    $0x1,%al
 35d:	88 4c 24 64          	mov    %cl,0x64(%rsp)
 361:	88 44 24 65          	mov    %al,0x65(%rsp)
 365:	e9 8d fe ff ff       	jmp    1f7 <_ZN4core4sync6atomic23atomic_compare_exchange17h31516c81fe2d60c4E+0x1f7>
 36a:	48 8b 4c 24 48       	mov    0x48(%rsp),%rcx
 36f:	8a 54 24 56          	mov    0x56(%rsp),%dl
 373:	8a 44 24 57          	mov    0x57(%rsp),%al
 377:	f0 0f b0 11          	lock cmpxchg %dl,(%rcx)
 37b:	88 c1                	mov    %al,%cl
 37d:	0f 94 c0             	sete   %al
 380:	24 01                	and    $0x1,%al
 382:	88 4c 24 64          	mov    %cl,0x64(%rsp)
 386:	88 44 24 65          	mov    %al,0x65(%rsp)
 38a:	e9 68 fe ff ff       	jmp    1f7 <_ZN4core4sync6atomic23atomic_compare_exchange17h31516c81fe2d60c4E+0x1f7>
 38f:	48 8b 4c 24 48       	mov    0x48(%rsp),%rcx
 394:	8a 54 24 56          	mov    0x56(%rsp),%dl
 398:	8a 44 24 57          	mov    0x57(%rsp),%al
 39c:	f0 0f b0 11          	lock cmpxchg %dl,(%rcx)
 3a0:	88 c1                	mov    %al,%cl
 3a2:	0f 94 c0             	sete   %al
 3a5:	24 01                	and    $0x1,%al
 3a7:	88 4c 24 64          	mov    %cl,0x64(%rsp)
 3ab:	88 44 24 65          	mov    %al,0x65(%rsp)
 3af:	e9 43 fe ff ff       	jmp    1f7 <_ZN4core4sync6atomic23atomic_compare_exchange17h31516c81fe2d60c4E+0x1f7>
 3b4:	48 8b 4c 24 48       	mov    0x48(%rsp),%rcx
 3b9:	8a 54 24 56          	mov    0x56(%rsp),%dl
 3bd:	8a 44 24 57          	mov    0x57(%rsp),%al
 3c1:	f0 0f b0 11          	lock cmpxchg %dl,(%rcx)
 3c5:	88 c1                	mov    %al,%cl
 3c7:	0f 94 c0             	sete   %al
 3ca:	24 01                	and    $0x1,%al
 3cc:	88 4c 24 64          	mov    %cl,0x64(%rsp)
 3d0:	88 44 24 65          	mov    %al,0x65(%rsp)
 3d4:	e9 1e fe ff ff       	jmp    1f7 <_ZN4core4sync6atomic23atomic_compare_exchange17h31516c81fe2d60c4E+0x1f7>
 3d9:	8a 44 24 1f          	mov    0x1f(%rsp),%al
 3dd:	88 44 24 63          	mov    %al,0x63(%rsp)
 3e1:	c6 44 24 62 01       	movb   $0x1,0x62(%rsp)
 3e6:	eb 0d                	jmp    3f5 <_ZN4core4sync6atomic23atomic_compare_exchange17h31516c81fe2d60c4E+0x3f5>
 3e8:	8a 44 24 1f          	mov    0x1f(%rsp),%al
 3ec:	88 44 24 63          	mov    %al,0x63(%rsp)
 3f0:	c6 44 24 62 00       	movb   $0x0,0x62(%rsp)
 3f5:	8a 44 24 62          	mov    0x62(%rsp),%al
 3f9:	8a 54 24 63          	mov    0x63(%rsp),%dl
 3fd:	48 81 c4 d8 00 00 00 	add    $0xd8,%rsp
 404:	c3                   	ret
 405:	48 8d 35 00 00 00 00 	lea    0x0(%rip),%rsi        # 40c <_ZN4core4sync6atomic23atomic_compare_exchange17h31516c81fe2d60c4E+0x40c>
 40c:	48 8d bc 24 98 00 00 	lea    0x98(%rsp),%rdi
 413:	00 
 414:	48 89 7c 24 10       	mov    %rdi,0x10(%rsp)
 419:	e8 00 00 00 00       	call   41e <_ZN4core4sync6atomic23atomic_compare_exchange17h31516c81fe2d60c4E+0x41e>
 41e:	48 8b 7c 24 10       	mov    0x10(%rsp),%rdi
 423:	48 8d 35 00 00 00 00 	lea    0x0(%rip),%rsi        # 42a <_ZN4core4sync6atomic23atomic_compare_exchange17h31516c81fe2d60c4E+0x42a>
 42a:	e8 00 00 00 00       	call   42f <_ZN4core4sync6atomic23atomic_compare_exchange17h31516c81fe2d60c4E+0x42f>
 42f:	48 8d 35 00 00 00 00 	lea    0x0(%rip),%rsi        # 436 <_ZN4core4sync6atomic23atomic_compare_exchange17h31516c81fe2d60c4E+0x436>
 436:	48 8d 7c 24 68       	lea    0x68(%rsp),%rdi
 43b:	48 89 7c 24 08       	mov    %rdi,0x8(%rsp)
 440:	e8 00 00 00 00       	call   445 <_ZN4core4sync6atomic23atomic_compare_exchange17h31516c81fe2d60c4E+0x445>
 445:	48 8b 7c 24 08       	mov    0x8(%rsp),%rdi
 44a:	48 8d 35 00 00 00 00 	lea    0x0(%rip),%rsi        # 451 <_ZN4core4sync6atomic23atomic_compare_exchange17h31516c81fe2d60c4E+0x451>
 451:	e8 00 00 00 00       	call   456 <_ZN4core4sync6atomic23atomic_compare_exchange17h31516c81fe2d60c4E+0x456>

Disassembly of section .text._ZN4core4sync6atomic28atomic_compare_exchange_weak17h8fa1d9daa37fc42aE:

0000000000000000 <_ZN4core4sync6atomic28atomic_compare_exchange_weak17h8fa1d9daa37fc42aE>:
   0:	48 81 ec d8 00 00 00 	sub    $0xd8,%rsp
   7:	48 89 7c 24 48       	mov    %rdi,0x48(%rsp)
   c:	44 88 c0             	mov    %r8b,%al
   f:	88 54 24 56          	mov    %dl,0x56(%rsp)
  13:	40 88 74 24 57       	mov    %sil,0x57(%rsp)
  18:	48 89 bc 24 c8 00 00 	mov    %rdi,0xc8(%rsp)
  1f:	00 
  20:	40 88 b4 24 d2 00 00 	mov    %sil,0xd2(%rsp)
  27:	00 
  28:	88 94 24 d3 00 00 00 	mov    %dl,0xd3(%rsp)
  2f:	88 8c 24 d4 00 00 00 	mov    %cl,0xd4(%rsp)
  36:	88 84 24 d5 00 00 00 	mov    %al,0xd5(%rsp)
  3d:	88 4c 24 66          	mov    %cl,0x66(%rsp)
  41:	88 44 24 67          	mov    %al,0x67(%rsp)
  45:	0f b6 44 24 66       	movzbl 0x66(%rsp),%eax
  4a:	48 89 44 24 58       	mov    %rax,0x58(%rsp)
  4f:	48 8b 44 24 58       	mov    0x58(%rsp),%rax
  54:	48 8d 0d 00 00 00 00 	lea    0x0(%rip),%rcx        # 5b <_ZN4core4sync6atomic28atomic_compare_exchange_weak17h8fa1d9daa37fc42aE+0x5b>
  5b:	48 63 04 81          	movslq (%rcx,%rax,4),%rax
  5f:	48 01 c8             	add    %rcx,%rax
  62:	ff e0                	jmp    *%rax
  64:	0f 0b                	ud2
  66:	0f b6 44 24 67       	movzbl 0x67(%rsp),%eax
  6b:	48 89 44 24 40       	mov    %rax,0x40(%rsp)
  70:	48 85 c0             	test   %rax,%rax
  73:	0f 84 1a 01 00 00    	je     193 <_ZN4core4sync6atomic28atomic_compare_exchange_weak17h8fa1d9daa37fc42aE+0x193>
  79:	eb 00                	jmp    7b <_ZN4core4sync6atomic28atomic_compare_exchange_weak17h8fa1d9daa37fc42aE+0x7b>
  7b:	48 8b 44 24 40       	mov    0x40(%rsp),%rax
  80:	48 83 e8 02          	sub    $0x2,%rax
  84:	0f 84 2b 01 00 00    	je     1b5 <_ZN4core4sync6atomic28atomic_compare_exchange_weak17h8fa1d9daa37fc42aE+0x1b5>
  8a:	eb 00                	jmp    8c <_ZN4core4sync6atomic28atomic_compare_exchange_weak17h8fa1d9daa37fc42aE+0x8c>
  8c:	48 8b 44 24 40       	mov    0x40(%rsp),%rax
  91:	48 83 e8 04          	sub    $0x4,%rax
  95:	0f 84 3c 01 00 00    	je     1d7 <_ZN4core4sync6atomic28atomic_compare_exchange_weak17h8fa1d9daa37fc42aE+0x1d7>
  9b:	e9 df 00 00 00       	jmp    17f <_ZN4core4sync6atomic28atomic_compare_exchange_weak17h8fa1d9daa37fc42aE+0x17f>
  a0:	0f b6 44 24 67       	movzbl 0x67(%rsp),%eax
  a5:	48 89 44 24 38       	mov    %rax,0x38(%rsp)
  aa:	48 85 c0             	test   %rax,%rax
  ad:	0f 84 70 01 00 00    	je     223 <_ZN4core4sync6atomic28atomic_compare_exchange_weak17h8fa1d9daa37fc42aE+0x223>
  b3:	eb 00                	jmp    b5 <_ZN4core4sync6atomic28atomic_compare_exchange_weak17h8fa1d9daa37fc42aE+0xb5>
  b5:	48 8b 44 24 38       	mov    0x38(%rsp),%rax
  ba:	48 83 e8 02          	sub    $0x2,%rax
  be:	0f 84 81 01 00 00    	je     245 <_ZN4core4sync6atomic28atomic_compare_exchange_weak17h8fa1d9daa37fc42aE+0x245>
  c4:	eb 00                	jmp    c6 <_ZN4core4sync6atomic28atomic_compare_exchange_weak17h8fa1d9daa37fc42aE+0xc6>
  c6:	48 8b 44 24 38       	mov    0x38(%rsp),%rax
  cb:	48 83 e8 04          	sub    $0x4,%rax
  cf:	0f 84 92 01 00 00    	je     267 <_ZN4core4sync6atomic28atomic_compare_exchange_weak17h8fa1d9daa37fc42aE+0x267>
  d5:	e9 a5 00 00 00       	jmp    17f <_ZN4core4sync6atomic28atomic_compare_exchange_weak17h8fa1d9daa37fc42aE+0x17f>
  da:	0f b6 44 24 67       	movzbl 0x67(%rsp),%eax
  df:	48 89 44 24 30       	mov    %rax,0x30(%rsp)
  e4:	48 85 c0             	test   %rax,%rax
  e7:	0f 84 9f 01 00 00    	je     28c <_ZN4core4sync6atomic28atomic_compare_exchange_weak17h8fa1d9daa37fc42aE+0x28c>
  ed:	eb 00                	jmp    ef <_ZN4core4sync6atomic28atomic_compare_exchange_weak17h8fa1d9daa37fc42aE+0xef>
  ef:	48 8b 44 24 30       	mov    0x30(%rsp),%rax
  f4:	48 83 e8 02          	sub    $0x2,%rax
  f8:	0f 84 b3 01 00 00    	je     2b1 <_ZN4core4sync6atomic28atomic_compare_exchange_weak17h8fa1d9daa37fc42aE+0x2b1>
  fe:	eb 00                	jmp    100 <_ZN4core4sync6atomic28atomic_compare_exchange_weak17h8fa1d9daa37fc42aE+0x100>
 100:	48 8b 44 24 30       	mov    0x30(%rsp),%rax
 105:	48 83 e8 04          	sub    $0x4,%rax
 109:	0f 84 c7 01 00 00    	je     2d6 <_ZN4core4sync6atomic28atomic_compare_exchange_weak17h8fa1d9daa37fc42aE+0x2d6>
 10f:	eb 6e                	jmp    17f <_ZN4core4sync6atomic28atomic_compare_exchange_weak17h8fa1d9daa37fc42aE+0x17f>
 111:	0f b6 44 24 67       	movzbl 0x67(%rsp),%eax
 116:	48 89 44 24 28       	mov    %rax,0x28(%rsp)
 11b:	48 85 c0             	test   %rax,%rax
 11e:	0f 84 d7 01 00 00    	je     2fb <_ZN4core4sync6atomic28atomic_compare_exchange_weak17h8fa1d9daa37fc42aE+0x2fb>
 124:	eb 00                	jmp    126 <_ZN4core4sync6atomic28atomic_compare_exchange_weak17h8fa1d9daa37fc42aE+0x126>
 126:	48 8b 44 24 28       	mov    0x28(%rsp),%rax
 12b:	48 83 e8 02          	sub    $0x2,%rax
 12f:	0f 84 eb 01 00 00    	je     320 <_ZN4core4sync6atomic28atomic_compare_exchange_weak17h8fa1d9daa37fc42aE+0x320>
 135:	eb 00                	jmp    137 <_ZN4core4sync6atomic28atomic_compare_exchange_weak17h8fa1d9daa37fc42aE+0x137>
 137:	48 8b 44 24 28       	mov    0x28(%rsp),%rax
 13c:	48 83 e8 04          	sub    $0x4,%rax
 140:	0f 84 ff 01 00 00    	je     345 <_ZN4core4sync6atomic28atomic_compare_exchange_weak17h8fa1d9daa37fc42aE+0x345>
 146:	eb 37                	jmp    17f <_ZN4core4sync6atomic28atomic_compare_exchange_weak17h8fa1d9daa37fc42aE+0x17f>
 148:	0f b6 44 24 67       	movzbl 0x67(%rsp),%eax
 14d:	48 89 44 24 20       	mov    %rax,0x20(%rsp)
 152:	48 85 c0             	test   %rax,%rax
 155:	0f 84 0f 02 00 00    	je     36a <_ZN4core4sync6atomic28atomic_compare_exchange_weak17h8fa1d9daa37fc42aE+0x36a>
 15b:	eb 00                	jmp    15d <_ZN4core4sync6atomic28atomic_compare_exchange_weak17h8fa1d9daa37fc42aE+0x15d>
 15d:	48 8b 44 24 20       	mov    0x20(%rsp),%rax
 162:	48 83 e8 02          	sub    $0x2,%rax
 166:	0f 84 23 02 00 00    	je     38f <_ZN4core4sync6atomic28atomic_compare_exchange_weak17h8fa1d9daa37fc42aE+0x38f>
 16c:	eb 00                	jmp    16e <_ZN4core4sync6atomic28atomic_compare_exchange_weak17h8fa1d9daa37fc42aE+0x16e>
 16e:	48 8b 44 24 20       	mov    0x20(%rsp),%rax
 173:	48 83 e8 04          	sub    $0x4,%rax
 177:	0f 84 37 02 00 00    	je     3b4 <_ZN4core4sync6atomic28atomic_compare_exchange_weak17h8fa1d9daa37fc42aE+0x3b4>
 17d:	eb 00                	jmp    17f <_ZN4core4sync6atomic28atomic_compare_exchange_weak17h8fa1d9daa37fc42aE+0x17f>
 17f:	0f b6 44 24 67       	movzbl 0x67(%rsp),%eax
 184:	48 83 f8 01          	cmp    $0x1,%rax
 188:	0f 84 77 02 00 00    	je     405 <_ZN4core4sync6atomic28atomic_compare_exchange_weak17h8fa1d9daa37fc42aE+0x405>
 18e:	e9 9c 02 00 00       	jmp    42f <_ZN4core4sync6atomic28atomic_compare_exchange_weak17h8fa1d9daa37fc42aE+0x42f>
 193:	48 8b 4c 24 48       	mov    0x48(%rsp),%rcx
 198:	8a 54 24 56          	mov    0x56(%rsp),%dl
 19c:	8a 44 24 57          	mov    0x57(%rsp),%al
 1a0:	f0 0f b0 11          	lock cmpxchg %dl,(%rcx)
 1a4:	88 c1                	mov    %al,%cl
 1a6:	0f 94 c0             	sete   %al
 1a9:	24 01                	and    $0x1,%al
 1ab:	88 4c 24 64          	mov    %cl,0x64(%rsp)
 1af:	88 44 24 65          	mov    %al,0x65(%rsp)
 1b3:	eb 42                	jmp    1f7 <_ZN4core4sync6atomic28atomic_compare_exchange_weak17h8fa1d9daa37fc42aE+0x1f7>
 1b5:	48 8b 4c 24 48       	mov    0x48(%rsp),%rcx
 1ba:	8a 54 24 56          	mov    0x56(%rsp),%dl
 1be:	8a 44 24 57          	mov    0x57(%rsp),%al
 1c2:	f0 0f b0 11          	lock cmpxchg %dl,(%rcx)
 1c6:	88 c1                	mov    %al,%cl
 1c8:	0f 94 c0             	sete   %al
 1cb:	24 01                	and    $0x1,%al
 1cd:	88 4c 24 64          	mov    %cl,0x64(%rsp)
 1d1:	88 44 24 65          	mov    %al,0x65(%rsp)
 1d5:	eb 20                	jmp    1f7 <_ZN4core4sync6atomic28atomic_compare_exchange_weak17h8fa1d9daa37fc42aE+0x1f7>
 1d7:	48 8b 4c 24 48       	mov    0x48(%rsp),%rcx
 1dc:	8a 54 24 56          	mov    0x56(%rsp),%dl
 1e0:	8a 44 24 57          	mov    0x57(%rsp),%al
 1e4:	f0 0f b0 11          	lock cmpxchg %dl,(%rcx)
 1e8:	88 c1                	mov    %al,%cl
 1ea:	0f 94 c0             	sete   %al
 1ed:	24 01                	and    $0x1,%al
 1ef:	88 4c 24 64          	mov    %cl,0x64(%rsp)
 1f3:	88 44 24 65          	mov    %al,0x65(%rsp)
 1f7:	8a 44 24 64          	mov    0x64(%rsp),%al
 1fb:	88 44 24 1f          	mov    %al,0x1f(%rsp)
 1ff:	88 84 24 d6 00 00 00 	mov    %al,0xd6(%rsp)
 206:	8a 44 24 65          	mov    0x65(%rsp),%al
 20a:	88 c1                	mov    %al,%cl
 20c:	80 e1 01             	and    $0x1,%cl
 20f:	88 8c 24 d7 00 00 00 	mov    %cl,0xd7(%rsp)
 216:	a8 01                	test   $0x1,%al
 218:	0f 85 ca 01 00 00    	jne    3e8 <_ZN4core4sync6atomic28atomic_compare_exchange_weak17h8fa1d9daa37fc42aE+0x3e8>
 21e:	e9 b6 01 00 00       	jmp    3d9 <_ZN4core4sync6atomic28atomic_compare_exchange_weak17h8fa1d9daa37fc42aE+0x3d9>
 223:	48 8b 4c 24 48       	mov    0x48(%rsp),%rcx
 228:	8a 54 24 56          	mov    0x56(%rsp),%dl
 22c:	8a 44 24 57          	mov    0x57(%rsp),%al
 230:	f0 0f b0 11          	lock cmpxchg %dl,(%rcx)
 234:	88 c1                	mov    %al,%cl
 236:	0f 94 c0             	sete   %al
 239:	24 01                	and    $0x1,%al
 23b:	88 4c 24 64          	mov    %cl,0x64(%rsp)
 23f:	88 44 24 65          	mov    %al,0x65(%rsp)
 243:	eb b2                	jmp    1f7 <_ZN4core4sync6atomic28atomic_compare_exchange_weak17h8fa1d9daa37fc42aE+0x1f7>
 245:	48 8b 4c 24 48       	mov    0x48(%rsp),%rcx
 24a:	8a 54 24 56          	mov    0x56(%rsp),%dl
 24e:	8a 44 24 57          	mov    0x57(%rsp),%al
 252:	f0 0f b0 11          	lock cmpxchg %dl,(%rcx)
 256:	88 c1                	mov    %al,%cl
 258:	0f 94 c0             	sete   %al
 25b:	24 01                	and    $0x1,%al
 25d:	88 4c 24 64          	mov    %cl,0x64(%rsp)
 261:	88 44 24 65          	mov    %al,0x65(%rsp)
 265:	eb 90                	jmp    1f7 <_ZN4core4sync6atomic28atomic_compare_exchange_weak17h8fa1d9daa37fc42aE+0x1f7>
 267:	48 8b 4c 24 48       	mov    0x48(%rsp),%rcx
 26c:	8a 54 24 56          	mov    0x56(%rsp),%dl
 270:	8a 44 24 57          	mov    0x57(%rsp),%al
 274:	f0 0f b0 11          	lock cmpxchg %dl,(%rcx)
 278:	88 c1                	mov    %al,%cl
 27a:	0f 94 c0             	sete   %al
 27d:	24 01                	and    $0x1,%al
 27f:	88 4c 24 64          	mov    %cl,0x64(%rsp)
 283:	88 44 24 65          	mov    %al,0x65(%rsp)
 287:	e9 6b ff ff ff       	jmp    1f7 <_ZN4core4sync6atomic28atomic_compare_exchange_weak17h8fa1d9daa37fc42aE+0x1f7>
 28c:	48 8b 4c 24 48       	mov    0x48(%rsp),%rcx
 291:	8a 54 24 56          	mov    0x56(%rsp),%dl
 295:	8a 44 24 57          	mov    0x57(%rsp),%al
 299:	f0 0f b0 11          	lock cmpxchg %dl,(%rcx)
 29d:	88 c1                	mov    %al,%cl
 29f:	0f 94 c0             	sete   %al
 2a2:	24 01                	and    $0x1,%al
 2a4:	88 4c 24 64          	mov    %cl,0x64(%rsp)
 2a8:	88 44 24 65          	mov    %al,0x65(%rsp)
 2ac:	e9 46 ff ff ff       	jmp    1f7 <_ZN4core4sync6atomic28atomic_compare_exchange_weak17h8fa1d9daa37fc42aE+0x1f7>
 2b1:	48 8b 4c 24 48       	mov    0x48(%rsp),%rcx
 2b6:	8a 54 24 56          	mov    0x56(%rsp),%dl
 2ba:	8a 44 24 57          	mov    0x57(%rsp),%al
 2be:	f0 0f b0 11          	lock cmpxchg %dl,(%rcx)
 2c2:	88 c1                	mov    %al,%cl
 2c4:	0f 94 c0             	sete   %al
 2c7:	24 01                	and    $0x1,%al
 2c9:	88 4c 24 64          	mov    %cl,0x64(%rsp)
 2cd:	88 44 24 65          	mov    %al,0x65(%rsp)
 2d1:	e9 21 ff ff ff       	jmp    1f7 <_ZN4core4sync6atomic28atomic_compare_exchange_weak17h8fa1d9daa37fc42aE+0x1f7>
 2d6:	48 8b 4c 24 48       	mov    0x48(%rsp),%rcx
 2db:	8a 54 24 56          	mov    0x56(%rsp),%dl
 2df:	8a 44 24 57          	mov    0x57(%rsp),%al
 2e3:	f0 0f b0 11          	lock cmpxchg %dl,(%rcx)
 2e7:	88 c1                	mov    %al,%cl
 2e9:	0f 94 c0             	sete   %al
 2ec:	24 01                	and    $0x1,%al
 2ee:	88 4c 24 64          	mov    %cl,0x64(%rsp)
 2f2:	88 44 24 65          	mov    %al,0x65(%rsp)
 2f6:	e9 fc fe ff ff       	jmp    1f7 <_ZN4core4sync6atomic28atomic_compare_exchange_weak17h8fa1d9daa37fc42aE+0x1f7>
 2fb:	48 8b 4c 24 48       	mov    0x48(%rsp),%rcx
 300:	8a 54 24 56          	mov    0x56(%rsp),%dl
 304:	8a 44 24 57          	mov    0x57(%rsp),%al
 308:	f0 0f b0 11          	lock cmpxchg %dl,(%rcx)
 30c:	88 c1                	mov    %al,%cl
 30e:	0f 94 c0             	sete   %al
 311:	24 01                	and    $0x1,%al
 313:	88 4c 24 64          	mov    %cl,0x64(%rsp)
 317:	88 44 24 65          	mov    %al,0x65(%rsp)
 31b:	e9 d7 fe ff ff       	jmp    1f7 <_ZN4core4sync6atomic28atomic_compare_exchange_weak17h8fa1d9daa37fc42aE+0x1f7>
 320:	48 8b 4c 24 48       	mov    0x48(%rsp),%rcx
 325:	8a 54 24 56          	mov    0x56(%rsp),%dl
 329:	8a 44 24 57          	mov    0x57(%rsp),%al
 32d:	f0 0f b0 11          	lock cmpxchg %dl,(%rcx)
 331:	88 c1                	mov    %al,%cl
 333:	0f 94 c0             	sete   %al
 336:	24 01                	and    $0x1,%al
 338:	88 4c 24 64          	mov    %cl,0x64(%rsp)
 33c:	88 44 24 65          	mov    %al,0x65(%rsp)
 340:	e9 b2 fe ff ff       	jmp    1f7 <_ZN4core4sync6atomic28atomic_compare_exchange_weak17h8fa1d9daa37fc42aE+0x1f7>
 345:	48 8b 4c 24 48       	mov    0x48(%rsp),%rcx
 34a:	8a 54 24 56          	mov    0x56(%rsp),%dl
 34e:	8a 44 24 57          	mov    0x57(%rsp),%al
 352:	f0 0f b0 11          	lock cmpxchg %dl,(%rcx)
 356:	88 c1                	mov    %al,%cl
 358:	0f 94 c0             	sete   %al
 35b:	24 01                	and    $0x1,%al
 35d:	88 4c 24 64          	mov    %cl,0x64(%rsp)
 361:	88 44 24 65          	mov    %al,0x65(%rsp)
 365:	e9 8d fe ff ff       	jmp    1f7 <_ZN4core4sync6atomic28atomic_compare_exchange_weak17h8fa1d9daa37fc42aE+0x1f7>
 36a:	48 8b 4c 24 48       	mov    0x48(%rsp),%rcx
 36f:	8a 54 24 56          	mov    0x56(%rsp),%dl
 373:	8a 44 24 57          	mov    0x57(%rsp),%al
 377:	f0 0f b0 11          	lock cmpxchg %dl,(%rcx)
 37b:	88 c1                	mov    %al,%cl
 37d:	0f 94 c0             	sete   %al
 380:	24 01                	and    $0x1,%al
 382:	88 4c 24 64          	mov    %cl,0x64(%rsp)
 386:	88 44 24 65          	mov    %al,0x65(%rsp)
 38a:	e9 68 fe ff ff       	jmp    1f7 <_ZN4core4sync6atomic28atomic_compare_exchange_weak17h8fa1d9daa37fc42aE+0x1f7>
 38f:	48 8b 4c 24 48       	mov    0x48(%rsp),%rcx
 394:	8a 54 24 56          	mov    0x56(%rsp),%dl
 398:	8a 44 24 57          	mov    0x57(%rsp),%al
 39c:	f0 0f b0 11          	lock cmpxchg %dl,(%rcx)
 3a0:	88 c1                	mov    %al,%cl
 3a2:	0f 94 c0             	sete   %al
 3a5:	24 01                	and    $0x1,%al
 3a7:	88 4c 24 64          	mov    %cl,0x64(%rsp)
 3ab:	88 44 24 65          	mov    %al,0x65(%rsp)
 3af:	e9 43 fe ff ff       	jmp    1f7 <_ZN4core4sync6atomic28atomic_compare_exchange_weak17h8fa1d9daa37fc42aE+0x1f7>
 3b4:	48 8b 4c 24 48       	mov    0x48(%rsp),%rcx
 3b9:	8a 54 24 56          	mov    0x56(%rsp),%dl
 3bd:	8a 44 24 57          	mov    0x57(%rsp),%al
 3c1:	f0 0f b0 11          	lock cmpxchg %dl,(%rcx)
 3c5:	88 c1                	mov    %al,%cl
 3c7:	0f 94 c0             	sete   %al
 3ca:	24 01                	and    $0x1,%al
 3cc:	88 4c 24 64          	mov    %cl,0x64(%rsp)
 3d0:	88 44 24 65          	mov    %al,0x65(%rsp)
 3d4:	e9 1e fe ff ff       	jmp    1f7 <_ZN4core4sync6atomic28atomic_compare_exchange_weak17h8fa1d9daa37fc42aE+0x1f7>
 3d9:	8a 44 24 1f          	mov    0x1f(%rsp),%al
 3dd:	88 44 24 63          	mov    %al,0x63(%rsp)
 3e1:	c6 44 24 62 01       	movb   $0x1,0x62(%rsp)
 3e6:	eb 0d                	jmp    3f5 <_ZN4core4sync6atomic28atomic_compare_exchange_weak17h8fa1d9daa37fc42aE+0x3f5>
 3e8:	8a 44 24 1f          	mov    0x1f(%rsp),%al
 3ec:	88 44 24 63          	mov    %al,0x63(%rsp)
 3f0:	c6 44 24 62 00       	movb   $0x0,0x62(%rsp)
 3f5:	8a 44 24 62          	mov    0x62(%rsp),%al
 3f9:	8a 54 24 63          	mov    0x63(%rsp),%dl
 3fd:	48 81 c4 d8 00 00 00 	add    $0xd8,%rsp
 404:	c3                   	ret
 405:	48 8d 35 00 00 00 00 	lea    0x0(%rip),%rsi        # 40c <_ZN4core4sync6atomic28atomic_compare_exchange_weak17h8fa1d9daa37fc42aE+0x40c>
 40c:	48 8d bc 24 98 00 00 	lea    0x98(%rsp),%rdi
 413:	00 
 414:	48 89 7c 24 10       	mov    %rdi,0x10(%rsp)
 419:	e8 00 00 00 00       	call   41e <_ZN4core4sync6atomic28atomic_compare_exchange_weak17h8fa1d9daa37fc42aE+0x41e>
 41e:	48 8b 7c 24 10       	mov    0x10(%rsp),%rdi
 423:	48 8d 35 00 00 00 00 	lea    0x0(%rip),%rsi        # 42a <_ZN4core4sync6atomic28atomic_compare_exchange_weak17h8fa1d9daa37fc42aE+0x42a>
 42a:	e8 00 00 00 00       	call   42f <_ZN4core4sync6atomic28atomic_compare_exchange_weak17h8fa1d9daa37fc42aE+0x42f>
 42f:	48 8d 35 00 00 00 00 	lea    0x0(%rip),%rsi        # 436 <_ZN4core4sync6atomic28atomic_compare_exchange_weak17h8fa1d9daa37fc42aE+0x436>
 436:	48 8d 7c 24 68       	lea    0x68(%rsp),%rdi
 43b:	48 89 7c 24 08       	mov    %rdi,0x8(%rsp)
 440:	e8 00 00 00 00       	call   445 <_ZN4core4sync6atomic28atomic_compare_exchange_weak17h8fa1d9daa37fc42aE+0x445>
 445:	48 8b 7c 24 08       	mov    0x8(%rsp),%rdi
 44a:	48 8d 35 00 00 00 00 	lea    0x0(%rip),%rsi        # 451 <_ZN4core4sync6atomic28atomic_compare_exchange_weak17h8fa1d9daa37fc42aE+0x451>
 451:	e8 00 00 00 00       	call   456 <_ZN4core4sync6atomic28atomic_compare_exchange_weak17h8fa1d9daa37fc42aE+0x456>

kernel-9b89dc178204b098.dkugg83lq5m3dy39mu2uipmqq.rcgu.o:     file format elf64-x86-64


Disassembly of section .text._ZN79_$LT$spin..mutex..MutexGuard$LT$T$GT$$u20$as$u20$core..ops..deref..DerefMut$GT$9deref_mut17h570f80e3f1c74e2eE:

0000000000000000 <_ZN79_$LT$spin..mutex..MutexGuard$LT$T$GT$$u20$as$u20$core..ops..deref..DerefMut$GT$9deref_mut17h570f80e3f1c74e2eE>:
   0:	50                   	push   %rax
   1:	48 89 3c 24          	mov    %rdi,(%rsp)
   5:	e8 00 00 00 00       	call   a <_ZN79_$LT$spin..mutex..MutexGuard$LT$T$GT$$u20$as$u20$core..ops..deref..DerefMut$GT$9deref_mut17h570f80e3f1c74e2eE+0xa>
   a:	59                   	pop    %rcx
   b:	c3                   	ret

kernel-9b89dc178204b098.dqhaj6iw9joq02epzt87gl92q.rcgu.o:     file format elf64-x86-64


Disassembly of section .text._ZN67_$LT$spin..once..status..Status$u20$as$u20$core..cmp..PartialEq$GT$2eq17h680980a4679c914dE:

0000000000000000 <_ZN67_$LT$spin..once..status..Status$u20$as$u20$core..cmp..PartialEq$GT$2eq17h680980a4679c914dE>:
   0:	48 83 ec 18          	sub    $0x18,%rsp
   4:	48 89 3c 24          	mov    %rdi,(%rsp)
   8:	48 89 74 24 08       	mov    %rsi,0x8(%rsp)
   d:	8a 07                	mov    (%rdi),%al
   f:	88 44 24 16          	mov    %al,0x16(%rsp)
  13:	8a 0e                	mov    (%rsi),%cl
  15:	88 4c 24 17          	mov    %cl,0x17(%rsp)
  19:	38 c8                	cmp    %cl,%al
  1b:	0f 94 c0             	sete   %al
  1e:	24 01                	and    $0x1,%al
  20:	48 83 c4 18          	add    $0x18,%rsp
  24:	c3                   	ret

kernel-9b89dc178204b098.e2cs77perlni76avywhhij93f.rcgu.o:     file format elf64-x86-64


Disassembly of section .text._ZN4core3str21_$LT$impl$u20$str$GT$5chars17h59d08a12b1b9bf1bE:

0000000000000000 <_ZN4core3str21_$LT$impl$u20$str$GT$5chars17h59d08a12b1b9bf1bE>:
   0:	48 83 ec 28          	sub    $0x28,%rsp
   4:	48 89 7c 24 08       	mov    %rdi,0x8(%rsp)
   9:	48 89 74 24 10       	mov    %rsi,0x10(%rsp)
   e:	48 89 7c 24 18       	mov    %rdi,0x18(%rsp)
  13:	48 89 74 24 20       	mov    %rsi,0x20(%rsp)
  18:	e8 00 00 00 00       	call   1d <_ZN4core3str21_$LT$impl$u20$str$GT$5chars17h59d08a12b1b9bf1bE+0x1d>
  1d:	48 83 c4 28          	add    $0x28,%rsp
  21:	c3                   	ret

kernel-9b89dc178204b098.f1pkheq6j8zznev3wprt8pru6.rcgu.o:     file format elf64-x86-64


Disassembly of section .text._ZN4core3ptr13read_volatile18precondition_check17h5109c23becef4addE:

0000000000000000 <_ZN4core3ptr13read_volatile18precondition_check17h5109c23becef4addE>:
   0:	48 83 ec 18          	sub    $0x18,%rsp
   4:	48 89 7c 24 08       	mov    %rdi,0x8(%rsp)
   9:	48 89 74 24 10       	mov    %rsi,0x10(%rsp)
   e:	e8 00 00 00 00       	call   13 <_ZN4core3ptr13read_volatile18precondition_check17h5109c23becef4addE+0x13>
  13:	a8 01                	test   $0x1,%al
  15:	75 11                	jne    28 <_ZN4core3ptr13read_volatile18precondition_check17h5109c23becef4addE+0x28>
  17:	48 8d 3d 00 00 00 00 	lea    0x0(%rip),%rdi        # 1e <_ZN4core3ptr13read_volatile18precondition_check17h5109c23becef4addE+0x1e>
  1e:	be 6e 00 00 00       	mov    $0x6e,%esi
  23:	e8 00 00 00 00       	call   28 <_ZN4core3ptr13read_volatile18precondition_check17h5109c23becef4addE+0x28>
  28:	48 83 c4 18          	add    $0x18,%rsp
  2c:	c3                   	ret

Disassembly of section .text._ZN4core3ptr14write_volatile18precondition_check17hb20169a26dd402cfE:

0000000000000000 <_ZN4core3ptr14write_volatile18precondition_check17hb20169a26dd402cfE>:
   0:	48 83 ec 18          	sub    $0x18,%rsp
   4:	48 89 7c 24 08       	mov    %rdi,0x8(%rsp)
   9:	48 89 74 24 10       	mov    %rsi,0x10(%rsp)
   e:	e8 00 00 00 00       	call   13 <_ZN4core3ptr14write_volatile18precondition_check17hb20169a26dd402cfE+0x13>
  13:	a8 01                	test   $0x1,%al
  15:	75 11                	jne    28 <_ZN4core3ptr14write_volatile18precondition_check17hb20169a26dd402cfE+0x28>
  17:	48 8d 3d 00 00 00 00 	lea    0x0(%rip),%rdi        # 1e <_ZN4core3ptr14write_volatile18precondition_check17hb20169a26dd402cfE+0x1e>
  1e:	be 6f 00 00 00       	mov    $0x6f,%esi
  23:	e8 00 00 00 00       	call   28 <_ZN4core3ptr14write_volatile18precondition_check17hb20169a26dd402cfE+0x28>
  28:	48 83 c4 18          	add    $0x18,%rsp
  2c:	c3                   	ret

Disassembly of section .text._ZN4core3ptr5write18precondition_check17hd8d41468d1f1ec79E:

0000000000000000 <_ZN4core3ptr5write18precondition_check17hd8d41468d1f1ec79E>:
   0:	48 83 ec 18          	sub    $0x18,%rsp
   4:	48 89 7c 24 08       	mov    %rdi,0x8(%rsp)
   9:	48 89 74 24 10       	mov    %rsi,0x10(%rsp)
   e:	e8 00 00 00 00       	call   13 <_ZN4core3ptr5write18precondition_check17hd8d41468d1f1ec79E+0x13>
  13:	a8 01                	test   $0x1,%al
  15:	75 11                	jne    28 <_ZN4core3ptr5write18precondition_check17hd8d41468d1f1ec79E+0x28>
  17:	48 8d 3d 00 00 00 00 	lea    0x0(%rip),%rdi        # 1e <_ZN4core3ptr5write18precondition_check17hd8d41468d1f1ec79E+0x1e>
  1e:	be 66 00 00 00       	mov    $0x66,%esi
  23:	e8 00 00 00 00       	call   28 <_ZN4core3ptr5write18precondition_check17hd8d41468d1f1ec79E+0x28>
  28:	48 83 c4 18          	add    $0x18,%rsp
  2c:	c3                   	ret

kernel-9b89dc178204b098.f3sp8avp2ds28viwfyh46lyix.rcgu.o:     file format elf64-x86-64


Disassembly of section .text._ZN154_$LT$extern$u20$$u22$x86.interrupt$u22$$u20$fn$LP$x86_64..structures..idt..InterruptStackFrame$RP$$u20$as$u20$x86_64..structures..idt..HandlerFuncType$GT$12to_virt_addr17he4a58b256ef7046dE:

0000000000000000 <_ZN154_$LT$extern$u20$$u22$x86.interrupt$u22$$u20$fn$LP$x86_64..structures..idt..InterruptStackFrame$RP$$u20$as$u20$x86_64..structures..idt..HandlerFuncType$GT$12to_virt_addr17he4a58b256ef7046dE>:
   0:	50                   	push   %rax
   1:	48 89 3c 24          	mov    %rdi,(%rsp)
   5:	e8 00 00 00 00       	call   a <_ZN154_$LT$extern$u20$$u22$x86.interrupt$u22$$u20$fn$LP$x86_64..structures..idt..InterruptStackFrame$RP$$u20$as$u20$x86_64..structures..idt..HandlerFuncType$GT$12to_virt_addr17he4a58b256ef7046dE+0xa>
   a:	59                   	pop    %rcx
   b:	c3                   	ret

Disassembly of section .text._ZN180_$LT$extern$u20$$u22$x86.interrupt$u22$$u20$fn$LP$x86_64..structures..idt..InterruptStackFrame$C$u64$RP$$u20$.$GT$$u20$$u21$$u20$as$u20$x86_64..structures..idt..HandlerFuncType$GT$12to_virt_addr17hac451d0e19036017E:

0000000000000000 <_ZN180_$LT$extern$u20$$u22$x86.interrupt$u22$$u20$fn$LP$x86_64..structures..idt..InterruptStackFrame$C$u64$RP$$u20$.$GT$$u20$$u21$$u20$as$u20$x86_64..structures..idt..HandlerFuncType$GT$12to_virt_addr17hac451d0e19036017E>:
   0:	50                   	push   %rax
   1:	48 89 3c 24          	mov    %rdi,(%rsp)
   5:	e8 00 00 00 00       	call   a <_ZN180_$LT$extern$u20$$u22$x86.interrupt$u22$$u20$fn$LP$x86_64..structures..idt..InterruptStackFrame$C$u64$RP$$u20$.$GT$$u20$$u21$$u20$as$u20$x86_64..structures..idt..HandlerFuncType$GT$12to_virt_addr17hac451d0e19036017E+0xa>
   a:	59                   	pop    %rcx
   b:	c3                   	ret

Disassembly of section .text._ZN6x86_6410structures3idt12EntryOptions11set_present17h6ccac7ba2f70410aE:

0000000000000000 <_ZN6x86_6410structures3idt12EntryOptions11set_present17h6ccac7ba2f70410aE>:
   0:	48 83 ec 18          	sub    $0x18,%rsp
   4:	48 89 3c 24          	mov    %rdi,(%rsp)
   8:	40 88 f0             	mov    %sil,%al
   b:	48 89 7c 24 08       	mov    %rdi,0x8(%rsp)
  10:	88 c1                	mov    %al,%cl
  12:	80 e1 01             	and    $0x1,%cl
  15:	88 4c 24 17          	mov    %cl,0x17(%rsp)
  19:	0f b6 d0             	movzbl %al,%edx
  1c:	83 e2 01             	and    $0x1,%edx
  1f:	48 8d 0d 00 00 00 00 	lea    0x0(%rip),%rcx        # 26 <_ZN6x86_6410structures3idt12EntryOptions11set_present17h6ccac7ba2f70410aE+0x26>
  26:	be 0f 00 00 00       	mov    $0xf,%esi
  2b:	e8 00 00 00 00       	call   30 <_ZN6x86_6410structures3idt12EntryOptions11set_present17h6ccac7ba2f70410aE+0x30>
  30:	48 8b 04 24          	mov    (%rsp),%rax
  34:	48 83 c4 18          	add    $0x18,%rsp
  38:	c3                   	ret

Disassembly of section .text._ZN6x86_6410structures3idt12EntryOptions7minimal17hdcdbfec141a30270E:

0000000000000000 <_ZN6x86_6410structures3idt12EntryOptions7minimal17hdcdbfec141a30270E>:
   0:	66 b8 00 0e          	mov    $0xe00,%ax
   4:	c3                   	ret

Disassembly of section .text._ZN6x86_6410structures3idt24InterruptDescriptorTable11load_unsafe17hc11466bdb92e6179E:

0000000000000000 <_ZN6x86_6410structures3idt24InterruptDescriptorTable11load_unsafe17hc11466bdb92e6179E>:
   0:	48 83 ec 18          	sub    $0x18,%rsp
   4:	48 89 fe             	mov    %rdi,%rsi
   7:	48 89 74 24 10       	mov    %rsi,0x10(%rsp)
   c:	48 8d 7c 24 06       	lea    0x6(%rsp),%rdi
  11:	e8 00 00 00 00       	call   16 <_ZN6x86_6410structures3idt24InterruptDescriptorTable11load_unsafe17hc11466bdb92e6179E+0x16>
  16:	48 8d 7c 24 06       	lea    0x6(%rsp),%rdi
  1b:	e8 00 00 00 00       	call   20 <_ZN6x86_6410structures3idt24InterruptDescriptorTable11load_unsafe17hc11466bdb92e6179E+0x20>
  20:	48 83 c4 18          	add    $0x18,%rsp
  24:	c3                   	ret

Disassembly of section .text._ZN6x86_6410structures3idt24InterruptDescriptorTable3new17hd8c837d00a512697E:

0000000000000000 <_ZN6x86_6410structures3idt24InterruptDescriptorTable3new17hd8c837d00a512697E>:
   0:	48 81 ec 58 10 00 00 	sub    $0x1058,%rsp
   7:	48 89 7c 24 20       	mov    %rdi,0x20(%rsp)
   c:	48 89 7c 24 28       	mov    %rdi,0x28(%rsp)
  11:	48 8d 7c 24 38       	lea    0x38(%rsp),%rdi
  16:	e8 00 00 00 00       	call   1b <_ZN6x86_6410structures3idt24InterruptDescriptorTable3new17hd8c837d00a512697E+0x1b>
  1b:	48 8d 7c 24 48       	lea    0x48(%rsp),%rdi
  20:	e8 00 00 00 00       	call   25 <_ZN6x86_6410structures3idt24InterruptDescriptorTable3new17hd8c837d00a512697E+0x25>
  25:	48 8d 7c 24 58       	lea    0x58(%rsp),%rdi
  2a:	e8 00 00 00 00       	call   2f <_ZN6x86_6410structures3idt24InterruptDescriptorTable3new17hd8c837d00a512697E+0x2f>
  2f:	48 8d 7c 24 68       	lea    0x68(%rsp),%rdi
  34:	e8 00 00 00 00       	call   39 <_ZN6x86_6410structures3idt24InterruptDescriptorTable3new17hd8c837d00a512697E+0x39>
  39:	48 8d 7c 24 78       	lea    0x78(%rsp),%rdi
  3e:	e8 00 00 00 00       	call   43 <_ZN6x86_6410structures3idt24InterruptDescriptorTable3new17hd8c837d00a512697E+0x43>
  43:	48 8d bc 24 88 00 00 	lea    0x88(%rsp),%rdi
  4a:	00 
  4b:	e8 00 00 00 00       	call   50 <_ZN6x86_6410structures3idt24InterruptDescriptorTable3new17hd8c837d00a512697E+0x50>
  50:	48 8d bc 24 98 00 00 	lea    0x98(%rsp),%rdi
  57:	00 
  58:	e8 00 00 00 00       	call   5d <_ZN6x86_6410structures3idt24InterruptDescriptorTable3new17hd8c837d00a512697E+0x5d>
  5d:	48 8d bc 24 a8 00 00 	lea    0xa8(%rsp),%rdi
  64:	00 
  65:	e8 00 00 00 00       	call   6a <_ZN6x86_6410structures3idt24InterruptDescriptorTable3new17hd8c837d00a512697E+0x6a>
  6a:	48 8d bc 24 b8 00 00 	lea    0xb8(%rsp),%rdi
  71:	00 
  72:	e8 00 00 00 00       	call   77 <_ZN6x86_6410structures3idt24InterruptDescriptorTable3new17hd8c837d00a512697E+0x77>
  77:	48 8d bc 24 c8 00 00 	lea    0xc8(%rsp),%rdi
  7e:	00 
  7f:	e8 00 00 00 00       	call   84 <_ZN6x86_6410structures3idt24InterruptDescriptorTable3new17hd8c837d00a512697E+0x84>
  84:	48 8d bc 24 d8 00 00 	lea    0xd8(%rsp),%rdi
  8b:	00 
  8c:	e8 00 00 00 00       	call   91 <_ZN6x86_6410structures3idt24InterruptDescriptorTable3new17hd8c837d00a512697E+0x91>
  91:	48 8d bc 24 e8 00 00 	lea    0xe8(%rsp),%rdi
  98:	00 
  99:	e8 00 00 00 00       	call   9e <_ZN6x86_6410structures3idt24InterruptDescriptorTable3new17hd8c837d00a512697E+0x9e>
  9e:	48 8d bc 24 f8 00 00 	lea    0xf8(%rsp),%rdi
  a5:	00 
  a6:	e8 00 00 00 00       	call   ab <_ZN6x86_6410structures3idt24InterruptDescriptorTable3new17hd8c837d00a512697E+0xab>
  ab:	48 8d bc 24 08 01 00 	lea    0x108(%rsp),%rdi
  b2:	00 
  b3:	e8 00 00 00 00       	call   b8 <_ZN6x86_6410structures3idt24InterruptDescriptorTable3new17hd8c837d00a512697E+0xb8>
  b8:	48 8d bc 24 18 01 00 	lea    0x118(%rsp),%rdi
  bf:	00 
  c0:	e8 00 00 00 00       	call   c5 <_ZN6x86_6410structures3idt24InterruptDescriptorTable3new17hd8c837d00a512697E+0xc5>
  c5:	48 8d bc 24 28 01 00 	lea    0x128(%rsp),%rdi
  cc:	00 
  cd:	e8 00 00 00 00       	call   d2 <_ZN6x86_6410structures3idt24InterruptDescriptorTable3new17hd8c837d00a512697E+0xd2>
  d2:	48 8d bc 24 38 01 00 	lea    0x138(%rsp),%rdi
  d9:	00 
  da:	e8 00 00 00 00       	call   df <_ZN6x86_6410structures3idt24InterruptDescriptorTable3new17hd8c837d00a512697E+0xdf>
  df:	48 8d bc 24 48 01 00 	lea    0x148(%rsp),%rdi
  e6:	00 
  e7:	e8 00 00 00 00       	call   ec <_ZN6x86_6410structures3idt24InterruptDescriptorTable3new17hd8c837d00a512697E+0xec>
  ec:	48 8d bc 24 58 01 00 	lea    0x158(%rsp),%rdi
  f3:	00 
  f4:	e8 00 00 00 00       	call   f9 <_ZN6x86_6410structures3idt24InterruptDescriptorTable3new17hd8c837d00a512697E+0xf9>
  f9:	48 8d bc 24 68 01 00 	lea    0x168(%rsp),%rdi
 100:	00 
 101:	e8 00 00 00 00       	call   106 <_ZN6x86_6410structures3idt24InterruptDescriptorTable3new17hd8c837d00a512697E+0x106>
 106:	48 8d bc 24 78 01 00 	lea    0x178(%rsp),%rdi
 10d:	00 
 10e:	e8 00 00 00 00       	call   113 <_ZN6x86_6410structures3idt24InterruptDescriptorTable3new17hd8c837d00a512697E+0x113>
 113:	48 8d bc 24 88 01 00 	lea    0x188(%rsp),%rdi
 11a:	00 
 11b:	e8 00 00 00 00       	call   120 <_ZN6x86_6410structures3idt24InterruptDescriptorTable3new17hd8c837d00a512697E+0x120>
 120:	48 8d bc 24 f8 01 00 	lea    0x1f8(%rsp),%rdi
 127:	00 
 128:	e8 00 00 00 00       	call   12d <_ZN6x86_6410structures3idt24InterruptDescriptorTable3new17hd8c837d00a512697E+0x12d>
 12d:	31 c0                	xor    %eax,%eax
 12f:	48 89 44 24 30       	mov    %rax,0x30(%rsp)
 134:	48 8b 44 24 30       	mov    0x30(%rsp),%rax
 139:	48 89 44 24 18       	mov    %rax,0x18(%rsp)
 13e:	48 83 f8 06          	cmp    $0x6,%rax
 142:	73 39                	jae    17d <_ZN6x86_6410structures3idt24InterruptDescriptorTable3new17hd8c837d00a512697E+0x17d>
 144:	48 8b 44 24 18       	mov    0x18(%rsp),%rax
 149:	48 8d 8c 24 98 01 00 	lea    0x198(%rsp),%rcx
 150:	00 
 151:	48 89 c2             	mov    %rax,%rdx
 154:	48 c1 e2 04          	shl    $0x4,%rdx
 158:	48 01 d1             	add    %rdx,%rcx
 15b:	48 8b 94 24 f8 01 00 	mov    0x1f8(%rsp),%rdx
 162:	00 
 163:	48 89 11             	mov    %rdx,(%rcx)
 166:	48 8b 94 24 00 02 00 	mov    0x200(%rsp),%rdx
 16d:	00 
 16e:	48 89 51 08          	mov    %rdx,0x8(%rcx)
 172:	48 83 c0 01          	add    $0x1,%rax
 176:	48 89 44 24 30       	mov    %rax,0x30(%rsp)
 17b:	eb b7                	jmp    134 <_ZN6x86_6410structures3idt24InterruptDescriptorTable3new17hd8c837d00a512697E+0x134>
 17d:	48 8d bc 24 08 02 00 	lea    0x208(%rsp),%rdi
 184:	00 
 185:	e8 00 00 00 00       	call   18a <_ZN6x86_6410structures3idt24InterruptDescriptorTable3new17hd8c837d00a512697E+0x18a>
 18a:	48 8d bc 24 18 02 00 	lea    0x218(%rsp),%rdi
 191:	00 
 192:	e8 00 00 00 00       	call   197 <_ZN6x86_6410structures3idt24InterruptDescriptorTable3new17hd8c837d00a512697E+0x197>
 197:	48 8d bc 24 28 02 00 	lea    0x228(%rsp),%rdi
 19e:	00 
 19f:	e8 00 00 00 00       	call   1a4 <_ZN6x86_6410structures3idt24InterruptDescriptorTable3new17hd8c837d00a512697E+0x1a4>
 1a4:	48 8d bc 24 38 02 00 	lea    0x238(%rsp),%rdi
 1ab:	00 
 1ac:	e8 00 00 00 00       	call   1b1 <_ZN6x86_6410structures3idt24InterruptDescriptorTable3new17hd8c837d00a512697E+0x1b1>
 1b1:	48 8d bc 24 48 10 00 	lea    0x1048(%rsp),%rdi
 1b8:	00 
 1b9:	e8 00 00 00 00       	call   1be <_ZN6x86_6410structures3idt24InterruptDescriptorTable3new17hd8c837d00a512697E+0x1be>
 1be:	31 c0                	xor    %eax,%eax
 1c0:	48 89 44 24 10       	mov    %rax,0x10(%rsp)
 1c5:	48 8b 44 24 10       	mov    0x10(%rsp),%rax
 1ca:	48 89 44 24 08       	mov    %rax,0x8(%rsp)
 1cf:	48 3d e0 00 00 00    	cmp    $0xe0,%rax
 1d5:	73 39                	jae    210 <_ZN6x86_6410structures3idt24InterruptDescriptorTable3new17hd8c837d00a512697E+0x210>
 1d7:	48 8b 44 24 08       	mov    0x8(%rsp),%rax
 1dc:	48 8d 8c 24 48 02 00 	lea    0x248(%rsp),%rcx
 1e3:	00 
 1e4:	48 89 c2             	mov    %rax,%rdx
 1e7:	48 c1 e2 04          	shl    $0x4,%rdx
 1eb:	48 01 d1             	add    %rdx,%rcx
 1ee:	48 8b 94 24 48 10 00 	mov    0x1048(%rsp),%rdx
 1f5:	00 
 1f6:	48 89 11             	mov    %rdx,(%rcx)
 1f9:	48 8b 94 24 50 10 00 	mov    0x1050(%rsp),%rdx
 200:	00 
 201:	48 89 51 08          	mov    %rdx,0x8(%rcx)
 205:	48 83 c0 01          	add    $0x1,%rax
 209:	48 89 44 24 10       	mov    %rax,0x10(%rsp)
 20e:	eb b5                	jmp    1c5 <_ZN6x86_6410structures3idt24InterruptDescriptorTable3new17hd8c837d00a512697E+0x1c5>
 210:	48 8b 7c 24 20       	mov    0x20(%rsp),%rdi
 215:	48 8b 44 24 38       	mov    0x38(%rsp),%rax
 21a:	48 89 07             	mov    %rax,(%rdi)
 21d:	48 8b 44 24 40       	mov    0x40(%rsp),%rax
 222:	48 89 47 08          	mov    %rax,0x8(%rdi)
 226:	48 8b 44 24 48       	mov    0x48(%rsp),%rax
 22b:	48 89 47 10          	mov    %rax,0x10(%rdi)
 22f:	48 8b 44 24 50       	mov    0x50(%rsp),%rax
 234:	48 89 47 18          	mov    %rax,0x18(%rdi)
 238:	48 8b 44 24 58       	mov    0x58(%rsp),%rax
 23d:	48 89 47 20          	mov    %rax,0x20(%rdi)
 241:	48 8b 44 24 60       	mov    0x60(%rsp),%rax
 246:	48 89 47 28          	mov    %rax,0x28(%rdi)
 24a:	48 8b 44 24 68       	mov    0x68(%rsp),%rax
 24f:	48 89 47 30          	mov    %rax,0x30(%rdi)
 253:	48 8b 44 24 70       	mov    0x70(%rsp),%rax
 258:	48 89 47 38          	mov    %rax,0x38(%rdi)
 25c:	48 8b 44 24 78       	mov    0x78(%rsp),%rax
 261:	48 89 47 40          	mov    %rax,0x40(%rdi)
 265:	48 8b 84 24 80 00 00 	mov    0x80(%rsp),%rax
 26c:	00 
 26d:	48 89 47 48          	mov    %rax,0x48(%rdi)
 271:	48 8b 84 24 88 00 00 	mov    0x88(%rsp),%rax
 278:	00 
 279:	48 89 47 50          	mov    %rax,0x50(%rdi)
 27d:	48 8b 84 24 90 00 00 	mov    0x90(%rsp),%rax
 284:	00 
 285:	48 89 47 58          	mov    %rax,0x58(%rdi)
 289:	48 8b 84 24 98 00 00 	mov    0x98(%rsp),%rax
 290:	00 
 291:	48 89 47 60          	mov    %rax,0x60(%rdi)
 295:	48 8b 84 24 a0 00 00 	mov    0xa0(%rsp),%rax
 29c:	00 
 29d:	48 89 47 68          	mov    %rax,0x68(%rdi)
 2a1:	48 8b 84 24 a8 00 00 	mov    0xa8(%rsp),%rax
 2a8:	00 
 2a9:	48 89 47 70          	mov    %rax,0x70(%rdi)
 2ad:	48 8b 84 24 b0 00 00 	mov    0xb0(%rsp),%rax
 2b4:	00 
 2b5:	48 89 47 78          	mov    %rax,0x78(%rdi)
 2b9:	48 8b 84 24 b8 00 00 	mov    0xb8(%rsp),%rax
 2c0:	00 
 2c1:	48 89 87 80 00 00 00 	mov    %rax,0x80(%rdi)
 2c8:	48 8b 84 24 c0 00 00 	mov    0xc0(%rsp),%rax
 2cf:	00 
 2d0:	48 89 87 88 00 00 00 	mov    %rax,0x88(%rdi)
 2d7:	48 8b 84 24 c8 00 00 	mov    0xc8(%rsp),%rax
 2de:	00 
 2df:	48 89 87 90 00 00 00 	mov    %rax,0x90(%rdi)
 2e6:	48 8b 84 24 d0 00 00 	mov    0xd0(%rsp),%rax
 2ed:	00 
 2ee:	48 89 87 98 00 00 00 	mov    %rax,0x98(%rdi)
 2f5:	48 8b 84 24 d8 00 00 	mov    0xd8(%rsp),%rax
 2fc:	00 
 2fd:	48 89 87 a0 00 00 00 	mov    %rax,0xa0(%rdi)
 304:	48 8b 84 24 e0 00 00 	mov    0xe0(%rsp),%rax
 30b:	00 
 30c:	48 89 87 a8 00 00 00 	mov    %rax,0xa8(%rdi)
 313:	48 8b 84 24 e8 00 00 	mov    0xe8(%rsp),%rax
 31a:	00 
 31b:	48 89 87 b0 00 00 00 	mov    %rax,0xb0(%rdi)
 322:	48 8b 84 24 f0 00 00 	mov    0xf0(%rsp),%rax
 329:	00 
 32a:	48 89 87 b8 00 00 00 	mov    %rax,0xb8(%rdi)
 331:	48 8b 84 24 f8 00 00 	mov    0xf8(%rsp),%rax
 338:	00 
 339:	48 89 87 c0 00 00 00 	mov    %rax,0xc0(%rdi)
 340:	48 8b 84 24 00 01 00 	mov    0x100(%rsp),%rax
 347:	00 
 348:	48 89 87 c8 00 00 00 	mov    %rax,0xc8(%rdi)
 34f:	48 8b 84 24 08 01 00 	mov    0x108(%rsp),%rax
 356:	00 
 357:	48 89 87 d0 00 00 00 	mov    %rax,0xd0(%rdi)
 35e:	48 8b 84 24 10 01 00 	mov    0x110(%rsp),%rax
 365:	00 
 366:	48 89 87 d8 00 00 00 	mov    %rax,0xd8(%rdi)
 36d:	48 8b 84 24 18 01 00 	mov    0x118(%rsp),%rax
 374:	00 
 375:	48 89 87 e0 00 00 00 	mov    %rax,0xe0(%rdi)
 37c:	48 8b 84 24 20 01 00 	mov    0x120(%rsp),%rax
 383:	00 
 384:	48 89 87 e8 00 00 00 	mov    %rax,0xe8(%rdi)
 38b:	48 8b 84 24 28 01 00 	mov    0x128(%rsp),%rax
 392:	00 
 393:	48 89 87 f0 00 00 00 	mov    %rax,0xf0(%rdi)
 39a:	48 8b 84 24 30 01 00 	mov    0x130(%rsp),%rax
 3a1:	00 
 3a2:	48 89 87 f8 00 00 00 	mov    %rax,0xf8(%rdi)
 3a9:	48 8b 84 24 38 01 00 	mov    0x138(%rsp),%rax
 3b0:	00 
 3b1:	48 89 87 00 01 00 00 	mov    %rax,0x100(%rdi)
 3b8:	48 8b 84 24 40 01 00 	mov    0x140(%rsp),%rax
 3bf:	00 
 3c0:	48 89 87 08 01 00 00 	mov    %rax,0x108(%rdi)
 3c7:	48 8b 84 24 48 01 00 	mov    0x148(%rsp),%rax
 3ce:	00 
 3cf:	48 89 87 10 01 00 00 	mov    %rax,0x110(%rdi)
 3d6:	48 8b 84 24 50 01 00 	mov    0x150(%rsp),%rax
 3dd:	00 
 3de:	48 89 87 18 01 00 00 	mov    %rax,0x118(%rdi)
 3e5:	48 8b 84 24 58 01 00 	mov    0x158(%rsp),%rax
 3ec:	00 
 3ed:	48 89 87 20 01 00 00 	mov    %rax,0x120(%rdi)
 3f4:	48 8b 84 24 60 01 00 	mov    0x160(%rsp),%rax
 3fb:	00 
 3fc:	48 89 87 28 01 00 00 	mov    %rax,0x128(%rdi)
 403:	48 8b 84 24 68 01 00 	mov    0x168(%rsp),%rax
 40a:	00 
 40b:	48 89 87 30 01 00 00 	mov    %rax,0x130(%rdi)
 412:	48 8b 84 24 70 01 00 	mov    0x170(%rsp),%rax
 419:	00 
 41a:	48 89 87 38 01 00 00 	mov    %rax,0x138(%rdi)
 421:	48 8b 84 24 78 01 00 	mov    0x178(%rsp),%rax
 428:	00 
 429:	48 89 87 40 01 00 00 	mov    %rax,0x140(%rdi)
 430:	48 8b 84 24 80 01 00 	mov    0x180(%rsp),%rax
 437:	00 
 438:	48 89 87 48 01 00 00 	mov    %rax,0x148(%rdi)
 43f:	48 8b 84 24 88 01 00 	mov    0x188(%rsp),%rax
 446:	00 
 447:	48 89 87 50 01 00 00 	mov    %rax,0x150(%rdi)
 44e:	48 8b 84 24 90 01 00 	mov    0x190(%rsp),%rax
 455:	00 
 456:	48 89 87 58 01 00 00 	mov    %rax,0x158(%rdi)
 45d:	48 81 c7 60 01 00 00 	add    $0x160,%rdi
 464:	48 8d b4 24 98 01 00 	lea    0x198(%rsp),%rsi
 46b:	00 
 46c:	ba 60 00 00 00       	mov    $0x60,%edx
 471:	e8 00 00 00 00       	call   476 <_ZN6x86_6410structures3idt24InterruptDescriptorTable3new17hd8c837d00a512697E+0x476>
 476:	48 8b 7c 24 20       	mov    0x20(%rsp),%rdi
 47b:	48 8b 84 24 08 02 00 	mov    0x208(%rsp),%rax
 482:	00 
 483:	48 89 87 c0 01 00 00 	mov    %rax,0x1c0(%rdi)
 48a:	48 8b 84 24 10 02 00 	mov    0x210(%rsp),%rax
 491:	00 
 492:	48 89 87 c8 01 00 00 	mov    %rax,0x1c8(%rdi)
 499:	48 8b 84 24 18 02 00 	mov    0x218(%rsp),%rax
 4a0:	00 
 4a1:	48 89 87 d0 01 00 00 	mov    %rax,0x1d0(%rdi)
 4a8:	48 8b 84 24 20 02 00 	mov    0x220(%rsp),%rax
 4af:	00 
 4b0:	48 89 87 d8 01 00 00 	mov    %rax,0x1d8(%rdi)
 4b7:	48 8b 84 24 28 02 00 	mov    0x228(%rsp),%rax
 4be:	00 
 4bf:	48 89 87 e0 01 00 00 	mov    %rax,0x1e0(%rdi)
 4c6:	48 8b 84 24 30 02 00 	mov    0x230(%rsp),%rax
 4cd:	00 
 4ce:	48 89 87 e8 01 00 00 	mov    %rax,0x1e8(%rdi)
 4d5:	48 8b 84 24 38 02 00 	mov    0x238(%rsp),%rax
 4dc:	00 
 4dd:	48 89 87 f0 01 00 00 	mov    %rax,0x1f0(%rdi)
 4e4:	48 8b 84 24 40 02 00 	mov    0x240(%rsp),%rax
 4eb:	00 
 4ec:	48 89 87 f8 01 00 00 	mov    %rax,0x1f8(%rdi)
 4f3:	48 81 c7 00 02 00 00 	add    $0x200,%rdi
 4fa:	48 8d b4 24 48 02 00 	lea    0x248(%rsp),%rsi
 501:	00 
 502:	ba 00 0e 00 00       	mov    $0xe00,%edx
 507:	e8 00 00 00 00       	call   50c <_ZN6x86_6410structures3idt24InterruptDescriptorTable3new17hd8c837d00a512697E+0x50c>
 50c:	48 8b 44 24 28       	mov    0x28(%rsp),%rax
 511:	48 81 c4 58 10 00 00 	add    $0x1058,%rsp
 518:	c3                   	ret

Disassembly of section .text._ZN6x86_6410structures3idt24InterruptDescriptorTable4load17h8dc315a7fec73275E:

0000000000000000 <_ZN6x86_6410structures3idt24InterruptDescriptorTable4load17h8dc315a7fec73275E>:
   0:	50                   	push   %rax
   1:	48 89 3c 24          	mov    %rdi,(%rsp)
   5:	e8 00 00 00 00       	call   a <_ZN6x86_6410structures3idt24InterruptDescriptorTable4load17h8dc315a7fec73275E+0xa>
   a:	58                   	pop    %rax
   b:	c3                   	ret

Disassembly of section .text._ZN81_$LT$x86_64..structures..idt..InterruptStackFrame$u20$as$u20$core..fmt..Debug$GT$3fmt17hf8710c3764e632ccE:

0000000000000000 <_ZN81_$LT$x86_64..structures..idt..InterruptStackFrame$u20$as$u20$core..fmt..Debug$GT$3fmt17hf8710c3764e632ccE>:
   0:	48 83 ec 18          	sub    $0x18,%rsp
   4:	48 89 7c 24 08       	mov    %rdi,0x8(%rsp)
   9:	48 89 74 24 10       	mov    %rsi,0x10(%rsp)
   e:	e8 00 00 00 00       	call   13 <_ZN81_$LT$x86_64..structures..idt..InterruptStackFrame$u20$as$u20$core..fmt..Debug$GT$3fmt17hf8710c3764e632ccE+0x13>
  13:	24 01                	and    $0x1,%al
  15:	48 83 c4 18          	add    $0x18,%rsp
  19:	c3                   	ret

multiboot2-7a32bba78a8280c5.multiboot2.4907bb39dc501cb5-cgu.0.rcgu.o:     file format elf64-x86-64


Disassembly of section .text._ZN100_$LT$multiboot2_common..iter..TagIter$LT$H$GT$$u20$as$u20$core..iter..traits..iterator..Iterator$GT$4next17h03e6bada5194acd9E:

0000000000000000 <_ZN100_$LT$multiboot2_common..iter..TagIter$LT$H$GT$$u20$as$u20$core..iter..traits..iterator..Iterator$GT$4next17h03e6bada5194acd9E>:
   0:	48 81 ec a8 01 00 00 	sub    $0x1a8,%rsp
   7:	48 89 7c 24 48       	mov    %rdi,0x48(%rsp)
   c:	48 89 7c 24 70       	mov    %rdi,0x70(%rsp)
  11:	48 8b 47 10          	mov    0x10(%rdi),%rax
  15:	48 3b 47 08          	cmp    0x8(%rdi),%rax
  19:	74 11                	je     2c <_ZN100_$LT$multiboot2_common..iter..TagIter$LT$H$GT$$u20$as$u20$core..iter..traits..iterator..Iterator$GT$4next17h03e6bada5194acd9E+0x2c>
  1b:	48 8b 4c 24 48       	mov    0x48(%rsp),%rcx
  20:	48 8b 41 10          	mov    0x10(%rcx),%rax
  24:	48 3b 41 08          	cmp    0x8(%rcx),%rax
  28:	72 28                	jb     52 <_ZN100_$LT$multiboot2_common..iter..TagIter$LT$H$GT$$u20$as$u20$core..iter..traits..iterator..Iterator$GT$4next17h03e6bada5194acd9E+0x52>
  2a:	eb 0e                	jmp    3a <_ZN100_$LT$multiboot2_common..iter..TagIter$LT$H$GT$$u20$as$u20$core..iter..traits..iterator..Iterator$GT$4next17h03e6bada5194acd9E+0x3a>
  2c:	48 c7 44 24 50 00 00 	movq   $0x0,0x50(%rsp)
  33:	00 00 
  35:	e9 fd 02 00 00       	jmp    337 <_ZN100_$LT$multiboot2_common..iter..TagIter$LT$H$GT$$u20$as$u20$core..iter..traits..iterator..Iterator$GT$4next17h03e6bada5194acd9E+0x337>
  3a:	48 8d 3d 00 00 00 00 	lea    0x0(%rip),%rdi        # 41 <_ZN100_$LT$multiboot2_common..iter..TagIter$LT$H$GT$$u20$as$u20$core..iter..traits..iterator..Iterator$GT$4next17h03e6bada5194acd9E+0x41>
  41:	48 8d 15 00 00 00 00 	lea    0x0(%rip),%rdx        # 48 <_ZN100_$LT$multiboot2_common..iter..TagIter$LT$H$GT$$u20$as$u20$core..iter..traits..iterator..Iterator$GT$4next17h03e6bada5194acd9E+0x48>
  48:	be 3a 00 00 00       	mov    $0x3a,%esi
  4d:	e8 00 00 00 00       	call   52 <_ZN100_$LT$multiboot2_common..iter..TagIter$LT$H$GT$$u20$as$u20$core..iter..traits..iterator..Iterator$GT$4next17h03e6bada5194acd9E+0x52>
  52:	48 8b 44 24 48       	mov    0x48(%rsp),%rax
  57:	48 8b 38             	mov    (%rax),%rdi
  5a:	48 8b 48 08          	mov    0x8(%rax),%rcx
  5e:	48 89 bc 24 e0 00 00 	mov    %rdi,0xe0(%rsp)
  65:	00 
  66:	48 89 8c 24 e8 00 00 	mov    %rcx,0xe8(%rsp)
  6d:	00 
  6e:	48 8b 48 10          	mov    0x10(%rax),%rcx
  72:	48 89 bc 24 c8 00 00 	mov    %rdi,0xc8(%rsp)
  79:	00 
  7a:	48 89 8c 24 d0 00 00 	mov    %rcx,0xd0(%rsp)
  81:	00 
  82:	48 01 cf             	add    %rcx,%rdi
  85:	48 89 bc 24 d8 00 00 	mov    %rdi,0xd8(%rsp)
  8c:	00 
  8d:	48 89 7c 24 78       	mov    %rdi,0x78(%rsp)
  92:	48 89 bc 24 80 00 00 	mov    %rdi,0x80(%rsp)
  99:	00 
  9a:	48 8b 40 10          	mov    0x10(%rax),%rax
  9e:	48 89 44 24 38       	mov    %rax,0x38(%rsp)
  a3:	48 89 84 24 88 00 00 	mov    %rax,0x88(%rsp)
  aa:	00 
  ab:	e8 00 00 00 00       	call   b0 <_ZN100_$LT$multiboot2_common..iter..TagIter$LT$H$GT$$u20$as$u20$core..iter..traits..iterator..Iterator$GT$4next17h03e6bada5194acd9E+0xb0>
  b0:	48 83 c0 08          	add    $0x8,%rax
  b4:	48 89 44 24 40       	mov    %rax,0x40(%rsp)
  b9:	0f 92 c0             	setb   %al
  bc:	72 21                	jb     df <_ZN100_$LT$multiboot2_common..iter..TagIter$LT$H$GT$$u20$as$u20$core..iter..traits..iterator..Iterator$GT$4next17h03e6bada5194acd9E+0xdf>
  be:	48 8b 4c 24 40       	mov    0x40(%rsp),%rcx
  c3:	48 8b 44 24 38       	mov    0x38(%rsp),%rax
  c8:	48 89 8c 24 90 00 00 	mov    %rcx,0x90(%rsp)
  cf:	00 
  d0:	48 01 c8             	add    %rcx,%rax
  d3:	48 89 44 24 30       	mov    %rax,0x30(%rsp)
  d8:	0f 92 c0             	setb   %al
  db:	72 44                	jb     121 <_ZN100_$LT$multiboot2_common..iter..TagIter$LT$H$GT$$u20$as$u20$core..iter..traits..iterator..Iterator$GT$4next17h03e6bada5194acd9E+0x121>
  dd:	eb 0c                	jmp    eb <_ZN100_$LT$multiboot2_common..iter..TagIter$LT$H$GT$$u20$as$u20$core..iter..traits..iterator..Iterator$GT$4next17h03e6bada5194acd9E+0xeb>
  df:	48 8d 3d 00 00 00 00 	lea    0x0(%rip),%rdi        # e6 <_ZN100_$LT$multiboot2_common..iter..TagIter$LT$H$GT$$u20$as$u20$core..iter..traits..iterator..Iterator$GT$4next17h03e6bada5194acd9E+0xe6>
  e6:	e8 00 00 00 00       	call   eb <_ZN100_$LT$multiboot2_common..iter..TagIter$LT$H$GT$$u20$as$u20$core..iter..traits..iterator..Iterator$GT$4next17h03e6bada5194acd9E+0xeb>
  eb:	48 8b 7c 24 30       	mov    0x30(%rsp),%rdi
  f0:	48 89 bc 24 98 00 00 	mov    %rdi,0x98(%rsp)
  f7:	00 
  f8:	e8 00 00 00 00       	call   fd <_ZN100_$LT$multiboot2_common..iter..TagIter$LT$H$GT$$u20$as$u20$core..iter..traits..iterator..Iterator$GT$4next17h03e6bada5194acd9E+0xfd>
  fd:	48 8b 4c 24 38       	mov    0x38(%rsp),%rcx
 102:	48 89 44 24 20       	mov    %rax,0x20(%rsp)
 107:	48 89 84 24 a0 00 00 	mov    %rax,0xa0(%rsp)
 10e:	00 
 10f:	48 89 c2             	mov    %rax,%rdx
 112:	48 29 ca             	sub    %rcx,%rdx
 115:	48 89 54 24 28       	mov    %rdx,0x28(%rsp)
 11a:	48 39 c8             	cmp    %rcx,%rax
 11d:	72 2c                	jb     14b <_ZN100_$LT$multiboot2_common..iter..TagIter$LT$H$GT$$u20$as$u20$core..iter..traits..iterator..Iterator$GT$4next17h03e6bada5194acd9E+0x14b>
 11f:	eb 0c                	jmp    12d <_ZN100_$LT$multiboot2_common..iter..TagIter$LT$H$GT$$u20$as$u20$core..iter..traits..iterator..Iterator$GT$4next17h03e6bada5194acd9E+0x12d>
 121:	48 8d 3d 00 00 00 00 	lea    0x0(%rip),%rdi        # 128 <_ZN100_$LT$multiboot2_common..iter..TagIter$LT$H$GT$$u20$as$u20$core..iter..traits..iterator..Iterator$GT$4next17h03e6bada5194acd9E+0x128>
 128:	e8 00 00 00 00       	call   12d <_ZN100_$LT$multiboot2_common..iter..TagIter$LT$H$GT$$u20$as$u20$core..iter..traits..iterator..Iterator$GT$4next17h03e6bada5194acd9E+0x12d>
 12d:	48 8b 4c 24 48       	mov    0x48(%rsp),%rcx
 132:	48 8b 44 24 28       	mov    0x28(%rsp),%rax
 137:	48 03 41 10          	add    0x10(%rcx),%rax
 13b:	48 89 44 24 18       	mov    %rax,0x18(%rsp)
 140:	0f 92 c0             	setb   %al
 143:	0f 82 e2 01 00 00    	jb     32b <_ZN100_$LT$multiboot2_common..iter..TagIter$LT$H$GT$$u20$as$u20$core..iter..traits..iterator..Iterator$GT$4next17h03e6bada5194acd9E+0x32b>
 149:	eb 0c                	jmp    157 <_ZN100_$LT$multiboot2_common..iter..TagIter$LT$H$GT$$u20$as$u20$core..iter..traits..iterator..Iterator$GT$4next17h03e6bada5194acd9E+0x157>
 14b:	48 8d 3d 00 00 00 00 	lea    0x0(%rip),%rdi        # 152 <_ZN100_$LT$multiboot2_common..iter..TagIter$LT$H$GT$$u20$as$u20$core..iter..traits..iterator..Iterator$GT$4next17h03e6bada5194acd9E+0x152>
 152:	e8 00 00 00 00       	call   157 <_ZN100_$LT$multiboot2_common..iter..TagIter$LT$H$GT$$u20$as$u20$core..iter..traits..iterator..Iterator$GT$4next17h03e6bada5194acd9E+0x157>
 157:	48 8b 74 24 38       	mov    0x38(%rsp),%rsi
 15c:	48 8b 7c 24 20       	mov    0x20(%rsp),%rdi
 161:	48 8b 44 24 48       	mov    0x48(%rsp),%rax
 166:	48 8b 4c 24 18       	mov    0x18(%rsp),%rcx
 16b:	48 89 48 10          	mov    %rcx,0x10(%rax)
 16f:	48 8b 08             	mov    (%rax),%rcx
 172:	48 89 4c 24 08       	mov    %rcx,0x8(%rsp)
 177:	48 8b 40 08          	mov    0x8(%rax),%rax
 17b:	48 89 44 24 10       	mov    %rax,0x10(%rsp)
 180:	48 89 8c 24 f0 00 00 	mov    %rcx,0xf0(%rsp)
 187:	00 
 188:	48 89 84 24 f8 00 00 	mov    %rax,0xf8(%rsp)
 18f:	00 
 190:	48 89 b4 24 00 01 00 	mov    %rsi,0x100(%rsp)
 197:	00 
 198:	48 89 bc 24 08 01 00 	mov    %rdi,0x108(%rsp)
 19f:	00 
 1a0:	48 89 b4 24 20 01 00 	mov    %rsi,0x120(%rsp)
 1a7:	00 
 1a8:	48 89 bc 24 28 01 00 	mov    %rdi,0x128(%rsp)
 1af:	00 
 1b0:	48 89 8c 24 30 01 00 	mov    %rcx,0x130(%rsp)
 1b7:	00 
 1b8:	48 89 84 24 38 01 00 	mov    %rax,0x138(%rsp)
 1bf:	00 
 1c0:	e8 00 00 00 00       	call   1c5 <_ZN100_$LT$multiboot2_common..iter..TagIter$LT$H$GT$$u20$as$u20$core..iter..traits..iterator..Iterator$GT$4next17h03e6bada5194acd9E+0x1c5>
 1c5:	48 89 84 24 10 01 00 	mov    %rax,0x110(%rsp)
 1cc:	00 
 1cd:	48 89 94 24 18 01 00 	mov    %rdx,0x118(%rsp)
 1d4:	00 
 1d5:	48 83 bc 24 10 01 00 	cmpq   $0x1,0x110(%rsp)
 1dc:	00 01 
 1de:	75 25                	jne    205 <_ZN100_$LT$multiboot2_common..iter..TagIter$LT$H$GT$$u20$as$u20$core..iter..traits..iterator..Iterator$GT$4next17h03e6bada5194acd9E+0x205>
 1e0:	48 8b 44 24 20       	mov    0x20(%rsp),%rax
 1e5:	48 8b 4c 24 10       	mov    0x10(%rsp),%rcx
 1ea:	48 8b 94 24 18 01 00 	mov    0x118(%rsp),%rdx
 1f1:	00 
 1f2:	48 89 14 24          	mov    %rdx,(%rsp)
 1f6:	48 89 94 24 40 01 00 	mov    %rdx,0x140(%rsp)
 1fd:	00 
 1fe:	48 39 c8             	cmp    %rcx,%rax
 201:	77 18                	ja     21b <_ZN100_$LT$multiboot2_common..iter..TagIter$LT$H$GT$$u20$as$u20$core..iter..traits..iterator..Iterator$GT$4next17h03e6bada5194acd9E+0x21b>
 203:	eb 2c                	jmp    231 <_ZN100_$LT$multiboot2_common..iter..TagIter$LT$H$GT$$u20$as$u20$core..iter..traits..iterator..Iterator$GT$4next17h03e6bada5194acd9E+0x231>
 205:	48 8b 74 24 20       	mov    0x20(%rsp),%rsi
 20a:	48 8b 7c 24 38       	mov    0x38(%rsp),%rdi
 20f:	48 8d 15 00 00 00 00 	lea    0x0(%rip),%rdx        # 216 <_ZN100_$LT$multiboot2_common..iter..TagIter$LT$H$GT$$u20$as$u20$core..iter..traits..iterator..Iterator$GT$4next17h03e6bada5194acd9E+0x216>
 216:	e8 00 00 00 00       	call   21b <_ZN100_$LT$multiboot2_common..iter..TagIter$LT$H$GT$$u20$as$u20$core..iter..traits..iterator..Iterator$GT$4next17h03e6bada5194acd9E+0x21b>
 21b:	48 8b 74 24 10       	mov    0x10(%rsp),%rsi
 220:	48 8b 7c 24 20       	mov    0x20(%rsp),%rdi
 225:	48 8d 15 00 00 00 00 	lea    0x0(%rip),%rdx        # 22c <_ZN100_$LT$multiboot2_common..iter..TagIter$LT$H$GT$$u20$as$u20$core..iter..traits..iterator..Iterator$GT$4next17h03e6bada5194acd9E+0x22c>
 22c:	e8 00 00 00 00       	call   231 <_ZN100_$LT$multiboot2_common..iter..TagIter$LT$H$GT$$u20$as$u20$core..iter..traits..iterator..Iterator$GT$4next17h03e6bada5194acd9E+0x231>
 231:	48 8b 14 24          	mov    (%rsp),%rdx
 235:	48 8b 44 24 38       	mov    0x38(%rsp),%rax
 23a:	48 8b 74 24 08       	mov    0x8(%rsp),%rsi
 23f:	48 8b 4c 24 10       	mov    0x10(%rsp),%rcx
 244:	48 89 b4 24 48 01 00 	mov    %rsi,0x148(%rsp)
 24b:	00 
 24c:	48 89 8c 24 50 01 00 	mov    %rcx,0x150(%rsp)
 253:	00 
 254:	48 89 84 24 58 01 00 	mov    %rax,0x158(%rsp)
 25b:	00 
 25c:	48 89 94 24 60 01 00 	mov    %rdx,0x160(%rsp)
 263:	00 
 264:	48 89 b4 24 70 01 00 	mov    %rsi,0x170(%rsp)
 26b:	00 
 26c:	48 89 8c 24 78 01 00 	mov    %rcx,0x178(%rsp)
 273:	00 
 274:	48 89 84 24 80 01 00 	mov    %rax,0x180(%rsp)
 27b:	00 
 27c:	48 89 b4 24 88 01 00 	mov    %rsi,0x188(%rsp)
 283:	00 
 284:	48 01 c6             	add    %rax,%rsi
 287:	48 89 b4 24 68 01 00 	mov    %rsi,0x168(%rsp)
 28e:	00 
 28f:	48 89 b4 24 a8 00 00 	mov    %rsi,0xa8(%rsp)
 296:	00 
 297:	48 89 94 24 b0 00 00 	mov    %rdx,0xb0(%rsp)
 29e:	00 
 29f:	48 8d 7c 24 60       	lea    0x60(%rsp),%rdi
 2a4:	e8 00 00 00 00       	call   2a9 <_ZN100_$LT$multiboot2_common..iter..TagIter$LT$H$GT$$u20$as$u20$core..iter..traits..iterator..Iterator$GT$4next17h03e6bada5194acd9E+0x2a9>
 2a9:	48 8b 54 24 60       	mov    0x60(%rsp),%rdx
 2ae:	31 c0                	xor    %eax,%eax
 2b0:	b9 01 00 00 00       	mov    $0x1,%ecx
 2b5:	48 83 fa 00          	cmp    $0x0,%rdx
 2b9:	48 0f 44 c1          	cmove  %rcx,%rax
 2bd:	48 83 f8 00          	cmp    $0x0,%rax
 2c1:	74 32                	je     2f5 <_ZN100_$LT$multiboot2_common..iter..TagIter$LT$H$GT$$u20$as$u20$core..iter..traits..iterator..Iterator$GT$4next17h03e6bada5194acd9E+0x2f5>
 2c3:	8a 44 24 68          	mov    0x68(%rsp),%al
 2c7:	88 84 24 97 01 00 00 	mov    %al,0x197(%rsp)
 2ce:	48 8d 3d 00 00 00 00 	lea    0x0(%rip),%rdi        # 2d5 <_ZN100_$LT$multiboot2_common..iter..TagIter$LT$H$GT$$u20$as$u20$core..iter..traits..iterator..Iterator$GT$4next17h03e6bada5194acd9E+0x2d5>
 2d5:	48 8d 0d 00 00 00 00 	lea    0x0(%rip),%rcx        # 2dc <_ZN100_$LT$multiboot2_common..iter..TagIter$LT$H$GT$$u20$as$u20$core..iter..traits..iterator..Iterator$GT$4next17h03e6bada5194acd9E+0x2dc>
 2dc:	4c 8d 05 00 00 00 00 	lea    0x0(%rip),%r8        # 2e3 <_ZN100_$LT$multiboot2_common..iter..TagIter$LT$H$GT$$u20$as$u20$core..iter..traits..iterator..Iterator$GT$4next17h03e6bada5194acd9E+0x2e3>
 2e3:	be 2b 00 00 00       	mov    $0x2b,%esi
 2e8:	48 8d 94 24 97 01 00 	lea    0x197(%rsp),%rdx
 2ef:	00 
 2f0:	e8 00 00 00 00       	call   2f5 <_ZN100_$LT$multiboot2_common..iter..TagIter$LT$H$GT$$u20$as$u20$core..iter..traits..iterator..Iterator$GT$4next17h03e6bada5194acd9E+0x2f5>
 2f5:	48 8b 4c 24 60       	mov    0x60(%rsp),%rcx
 2fa:	48 8b 44 24 68       	mov    0x68(%rsp),%rax
 2ff:	48 89 8c 24 98 01 00 	mov    %rcx,0x198(%rsp)
 306:	00 
 307:	48 89 84 24 a0 01 00 	mov    %rax,0x1a0(%rsp)
 30e:	00 
 30f:	48 89 8c 24 b8 00 00 	mov    %rcx,0xb8(%rsp)
 316:	00 
 317:	48 89 84 24 c0 00 00 	mov    %rax,0xc0(%rsp)
 31e:	00 
 31f:	48 89 4c 24 50       	mov    %rcx,0x50(%rsp)
 324:	48 89 44 24 58       	mov    %rax,0x58(%rsp)
 329:	eb 0c                	jmp    337 <_ZN100_$LT$multiboot2_common..iter..TagIter$LT$H$GT$$u20$as$u20$core..iter..traits..iterator..Iterator$GT$4next17h03e6bada5194acd9E+0x337>
 32b:	48 8d 3d 00 00 00 00 	lea    0x0(%rip),%rdi        # 332 <_ZN100_$LT$multiboot2_common..iter..TagIter$LT$H$GT$$u20$as$u20$core..iter..traits..iterator..Iterator$GT$4next17h03e6bada5194acd9E+0x332>
 332:	e8 00 00 00 00       	call   337 <_ZN100_$LT$multiboot2_common..iter..TagIter$LT$H$GT$$u20$as$u20$core..iter..traits..iterator..Iterator$GT$4next17h03e6bada5194acd9E+0x337>
 337:	48 8b 44 24 50       	mov    0x50(%rsp),%rax
 33c:	48 8b 54 24 58       	mov    0x58(%rsp),%rdx
 341:	48 81 c4 a8 01 00 00 	add    $0x1a8,%rsp
 348:	c3                   	ret

Disassembly of section .text._ZN114_$LT$multiboot2_common..bytes_ref..BytesRef$LT$H$GT$$u20$as$u20$core..convert..TryFrom$LT$$RF$$u5b$u8$u5d$$GT$$GT$8try_from17h16fcb3f2861c63bbE:

0000000000000000 <_ZN114_$LT$multiboot2_common..bytes_ref..BytesRef$LT$H$GT$$u20$as$u20$core..convert..TryFrom$LT$$RF$$u5b$u8$u5d$$GT$$GT$8try_from17h16fcb3f2861c63bbE>:
   0:	48 83 ec 58          	sub    $0x58,%rsp
   4:	48 89 54 24 08       	mov    %rdx,0x8(%rsp)
   9:	48 89 74 24 10       	mov    %rsi,0x10(%rsp)
   e:	48 89 7c 24 18       	mov    %rdi,0x18(%rsp)
  13:	48 89 7c 24 20       	mov    %rdi,0x20(%rsp)
  18:	48 89 74 24 30       	mov    %rsi,0x30(%rsp)
  1d:	48 89 54 24 38       	mov    %rdx,0x38(%rsp)
  22:	48 83 fa 08          	cmp    $0x8,%rdx
  26:	72 26                	jb     4e <_ZN114_$LT$multiboot2_common..bytes_ref..BytesRef$LT$H$GT$$u20$as$u20$core..convert..TryFrom$LT$$RF$$u5b$u8$u5d$$GT$$GT$8try_from17h16fcb3f2861c63bbE+0x4e>
  28:	48 8b 7c 24 10       	mov    0x10(%rsp),%rdi
  2d:	48 8b 44 24 08       	mov    0x8(%rsp),%rax
  32:	48 89 7c 24 48       	mov    %rdi,0x48(%rsp)
  37:	48 89 44 24 50       	mov    %rax,0x50(%rsp)
  3c:	be 08 00 00 00       	mov    $0x8,%esi
  41:	e8 00 00 00 00       	call   46 <_ZN114_$LT$multiboot2_common..bytes_ref..BytesRef$LT$H$GT$$u20$as$u20$core..convert..TryFrom$LT$$RF$$u5b$u8$u5d$$GT$$GT$8try_from17h16fcb3f2861c63bbE+0x46>
  46:	48 83 f8 00          	cmp    $0x0,%rax
  4a:	74 1c                	je     68 <_ZN114_$LT$multiboot2_common..bytes_ref..BytesRef$LT$H$GT$$u20$as$u20$core..convert..TryFrom$LT$$RF$$u5b$u8$u5d$$GT$$GT$8try_from17h16fcb3f2861c63bbE+0x68>
  4c:	eb 30                	jmp    7e <_ZN114_$LT$multiboot2_common..bytes_ref..BytesRef$LT$H$GT$$u20$as$u20$core..convert..TryFrom$LT$$RF$$u5b$u8$u5d$$GT$$GT$8try_from17h16fcb3f2861c63bbE+0x7e>
  4e:	48 8b 44 24 18       	mov    0x18(%rsp),%rax
  53:	c6 44 24 2d 02       	movb   $0x2,0x2d(%rsp)
  58:	8a 4c 24 2d          	mov    0x2d(%rsp),%cl
  5c:	88 48 08             	mov    %cl,0x8(%rax)
  5f:	48 c7 00 00 00 00 00 	movq   $0x0,(%rax)
  66:	eb 60                	jmp    c8 <_ZN114_$LT$multiboot2_common..bytes_ref..BytesRef$LT$H$GT$$u20$as$u20$core..convert..TryFrom$LT$$RF$$u5b$u8$u5d$$GT$$GT$8try_from17h16fcb3f2861c63bbE+0xc8>
  68:	48 8b 44 24 08       	mov    0x8(%rsp),%rax
